
kmeans.mips.tm:     file format elf32-tradbigmips

Disassembly of section .init:

004000ec <_init>:
  4000ec:	27bdffe8 	addiu	sp,sp,-24
  4000f0:	afbf0010 	sw	ra,16(sp)
  4000f4:	0c100060 	jal	400180 <call_gmon_start>
  4000f8:	00000000 	nop
  4000fc:	04110001 	bal	400104 <_init+0x18>
  400100:	00000000 	nop
  400104:	0c100087 	jal	40021c <frame_dummy>
  400108:	00000000 	nop
  40010c:	04110001 	bal	400114 <_init+0x28>
  400110:	00000000 	nop
  400114:	0c1198b0 	jal	4662c0 <__do_global_ctors_aux>
  400118:	00000000 	nop
  40011c:	8fbf0010 	lw	ra,16(sp)
  400120:	03e00008 	jr	ra
  400124:	27bd0018 	addiu	sp,sp,24
Disassembly of section .text:

00400130 <__start>:
  400130:	3c1c0049 	lui	gp,0x49
  400134:	279c38e0 	addiu	gp,gp,14560
  400138:	0000f821 	move	ra,zero
  40013c:	3c040040 	lui	a0,0x40
  400140:	248416e8 	addiu	a0,a0,5864
  400144:	8fa50000 	lw	a1,0(sp)
  400148:	27a60004 	addiu	a2,sp,4
  40014c:	2401fff8 	li	at,-8
  400150:	03a1e824 	and	sp,sp,at
  400154:	27bdffe0 	addiu	sp,sp,-32
  400158:	3c070041 	lui	a3,0x41
  40015c:	24e79bc0 	addiu	a3,a3,-25664
  400160:	3c080041 	lui	t0,0x41
  400164:	25089c64 	addiu	t0,t0,-25500
  400168:	afa80010 	sw	t0,16(sp)
  40016c:	afa20014 	sw	v0,20(sp)
  400170:	0c102604 	jal	409810 <__libc_start_main>
  400174:	afbd0018 	sw	sp,24(sp)

00400178 <hlt>:
  400178:	1000ffff 	b	400178 <hlt>
  40017c:	00000000 	nop

00400180 <call_gmon_start>:
  400180:	3c020000 	lui	v0,0x0
  400184:	24590000 	addiu	t9,v0,0
  400188:	13200003 	beqz	t9,400198 <call_gmon_start+0x18>
  40018c:	00000000 	nop
  400190:	03200008 	jr	t9
  400194:	00000000 	nop
  400198:	03e00008 	jr	ra
  40019c:	00000000 	nop

004001a0 <__do_global_dtors_aux>:
  4001a0:	27bdffe0 	addiu	sp,sp,-32
  4001a4:	afb10014 	sw	s1,20(sp)
  4001a8:	3c111000 	lui	s1,0x1000
  4001ac:	92220000 	lbu	v0,0(s1)
  4001b0:	afbf0018 	sw	ra,24(sp)
  4001b4:	14400014 	bnez	v0,400208 <__do_global_dtors_aux+0x68>
  4001b8:	afb00010 	sw	s0,16(sp)
  4001bc:	08100073 	j	4001cc <__do_global_dtors_aux+0x2c>
  4001c0:	3c100049 	lui	s0,0x49
  4001c4:	0060f809 	jalr	v1
  4001c8:	ae02a9a4 	sw	v0,-22108(s0)
  4001cc:	8e02a9a4 	lw	v0,-22108(s0)
  4001d0:	00000000 	nop
  4001d4:	8c430000 	lw	v1,0(v0)
  4001d8:	00000000 	nop
  4001dc:	1460fff9 	bnez	v1,4001c4 <__do_global_dtors_aux+0x24>
  4001e0:	24420004 	addiu	v0,v0,4
  4001e4:	3c020000 	lui	v0,0x0
  4001e8:	24420000 	addiu	v0,v0,0
  4001ec:	10400005 	beqz	v0,400204 <__do_global_dtors_aux+0x64>
  4001f0:	24020001 	li	v0,1
  4001f4:	3c040049 	lui	a0,0x49
  4001f8:	0c000000 	jal	0 <_init-0x4000ec>
  4001fc:	24849d04 	addiu	a0,a0,-25340
  400200:	24020001 	li	v0,1
  400204:	a2220000 	sb	v0,0(s1)
  400208:	8fbf0018 	lw	ra,24(sp)
  40020c:	8fb10014 	lw	s1,20(sp)
  400210:	8fb00010 	lw	s0,16(sp)
  400214:	03e00008 	jr	ra
  400218:	27bd0020 	addiu	sp,sp,32

0040021c <frame_dummy>:
  40021c:	3c020000 	lui	v0,0x0
  400220:	27bdffe8 	addiu	sp,sp,-24
  400224:	3c040049 	lui	a0,0x49
  400228:	3c051000 	lui	a1,0x1000
  40022c:	24420000 	addiu	v0,v0,0
  400230:	afbf0010 	sw	ra,16(sp)
  400234:	24849d04 	addiu	a0,a0,-25340
  400238:	10400003 	beqz	v0,400248 <frame_dummy+0x2c>
  40023c:	24a50270 	addiu	a1,a1,624
  400240:	0c000000 	jal	0 <_init-0x4000ec>
  400244:	00000000 	nop
  400248:	3c040049 	lui	a0,0x49
  40024c:	8c82b8e0 	lw	v0,-18208(a0)
  400250:	00000000 	nop
  400254:	10400007 	beqz	v0,400274 <frame_dummy+0x58>
  400258:	3c020000 	lui	v0,0x0
  40025c:	24420000 	addiu	v0,v0,0
  400260:	10400004 	beqz	v0,400274 <frame_dummy+0x58>
  400264:	2484b8e0 	addiu	a0,a0,-18208
  400268:	8fbf0010 	lw	ra,16(sp)
  40026c:	08000000 	j	0 <_init-0x4000ec>
  400270:	27bd0018 	addiu	sp,sp,24
  400274:	8fbf0010 	lw	ra,16(sp)
  400278:	00000000 	nop
  40027c:	03e00008 	jr	ra
  400280:	27bd0018 	addiu	sp,sp,24
	...

00400290 <sesc_lock_init>:
  400290:	ac800000 	sw	zero,0(a0)
  400294:	03e00008 	jr	ra
  400298:	00000000 	nop

0040029c <sesc_lock>:
  40029c:	27bdffd8 	addiu	sp,sp,-40
  4002a0:	24020005 	li	v0,5
  4002a4:	afb3001c 	sw	s3,28(sp)
  4002a8:	afb20018 	sw	s2,24(sp)
  4002ac:	afb00010 	sw	s0,16(sp)
  4002b0:	afbf0020 	sw	ra,32(sp)
  4002b4:	afb10014 	sw	s1,20(sp)
  4002b8:	00808021 	move	s0,a0
  4002bc:	ac820004 	sw	v0,4(a0)
  4002c0:	24120001 	li	s2,1
  4002c4:	24130005 	li	s3,5
  4002c8:	24040002 	li	a0,2
  4002cc:	02002821 	move	a1,s0
  4002d0:	0c10028c 	jal	400a30 <sesc_fetch_op>
  4002d4:	24060001 	li	a2,1
  4002d8:	14520013 	bne	v0,s2,400328 <sesc_lock+0x8c>
  4002dc:	00402021 	move	a0,v0
  4002e0:	ae130004 	sw	s3,4(s0)
  4002e4:	8e050000 	lw	a1,0(s0)
  4002e8:	00000000 	nop
  4002ec:	14a4fff6 	bne	a1,a0,4002c8 <sesc_lock+0x2c>
  4002f0:	00001821 	move	v1,zero
  4002f4:	081000c3 	j	40030c <sesc_lock+0x70>
  4002f8:	24110001 	li	s1,1
  4002fc:	8e040000 	lw	a0,0(s0)
  400300:	00000000 	nop
  400304:	1491fff1 	bne	a0,s1,4002cc <sesc_lock+0x30>
  400308:	24040002 	li	a0,2
  40030c:	2463ffff 	addiu	v1,v1,-1
  400310:	0461fffa 	bgez	v1,4002fc <sesc_lock+0x60>
  400314:	2404ffff 	li	a0,-1
  400318:	0c100269 	jal	4009a4 <sesc_yield>
  40031c:	00000000 	nop
  400320:	081000bf 	j	4002fc <sesc_lock+0x60>
  400324:	240303e8 	li	v1,1000
  400328:	02002021 	move	a0,s0
  40032c:	8fbf0020 	lw	ra,32(sp)
  400330:	8fb3001c 	lw	s3,28(sp)
  400334:	8fb20018 	lw	s2,24(sp)
  400338:	8fb10014 	lw	s1,20(sp)
  40033c:	8fb00010 	lw	s0,16(sp)
  400340:	081002ac 	j	400ab0 <sesc_memfence>
  400344:	27bd0028 	addiu	sp,sp,40

00400348 <sesc_unlock>:
  400348:	27bdffe8 	addiu	sp,sp,-24
  40034c:	afbf0014 	sw	ra,20(sp)
  400350:	afb00010 	sw	s0,16(sp)
  400354:	0c1002ac 	jal	400ab0 <sesc_memfence>
  400358:	00808021 	move	s0,a0
  40035c:	24020005 	li	v0,5
  400360:	ae020004 	sw	v0,4(s0)
  400364:	02002021 	move	a0,s0
  400368:	8fbf0014 	lw	ra,20(sp)
  40036c:	8fb00010 	lw	s0,16(sp)
  400370:	00002821 	move	a1,zero
  400374:	08100297 	j	400a5c <sesc_unlock_op>
  400378:	27bd0018 	addiu	sp,sp,24

0040037c <sesc_barrier_init>:
  40037c:	ac800004 	sw	zero,4(a0)
  400380:	ac800000 	sw	zero,0(a0)
  400384:	03e00008 	jr	ra
  400388:	00000000 	nop

0040038c <sesc_barrier>:
  40038c:	27bdffd8 	addiu	sp,sp,-40
  400390:	afb3001c 	sw	s3,28(sp)
  400394:	afb20018 	sw	s2,24(sp)
  400398:	afb10014 	sw	s1,20(sp)
  40039c:	afb00010 	sw	s0,16(sp)
  4003a0:	afbf0020 	sw	ra,32(sp)
  4003a4:	8c820000 	lw	v0,0(a0)
  4003a8:	00809021 	move	s2,a0
  4003ac:	00a08821 	move	s1,a1
  4003b0:	00002021 	move	a0,zero
  4003b4:	26450004 	addiu	a1,s2,4
  4003b8:	00003021 	move	a2,zero
  4003bc:	2c530001 	sltiu	s3,v0,1
  4003c0:	0c10028c 	jal	400a30 <sesc_fetch_op>
  4003c4:	2630ffff 	addiu	s0,s1,-1
  4003c8:	10500016 	beq	v0,s0,400424 <sesc_barrier+0x98>
  4003cc:	241103e8 	li	s1,1000
  4003d0:	8e430000 	lw	v1,0(s2)
  4003d4:	00000000 	nop
  4003d8:	1073000b 	beq	v1,s3,400408 <sesc_barrier+0x7c>
  4003dc:	02402021 	move	a0,s2
  4003e0:	2631ffff 	addiu	s1,s1,-1
  4003e4:	0621fffa 	bgez	s1,4003d0 <sesc_barrier+0x44>
  4003e8:	2404ffff 	li	a0,-1
  4003ec:	0c100269 	jal	4009a4 <sesc_yield>
  4003f0:	241103e8 	li	s1,1000
  4003f4:	8e430000 	lw	v1,0(s2)
  4003f8:	00000000 	nop
  4003fc:	1473fff9 	bne	v1,s3,4003e4 <sesc_barrier+0x58>
  400400:	2631ffff 	addiu	s1,s1,-1
  400404:	02402021 	move	a0,s2
  400408:	8fbf0020 	lw	ra,32(sp)
  40040c:	8fb3001c 	lw	s3,28(sp)
  400410:	8fb20018 	lw	s2,24(sp)
  400414:	8fb10014 	lw	s1,20(sp)
  400418:	8fb00010 	lw	s0,16(sp)
  40041c:	081002ac 	j	400ab0 <sesc_memfence>
  400420:	27bd0028 	addiu	sp,sp,40
  400424:	ae400004 	sw	zero,4(s2)
  400428:	02402021 	move	a0,s2
  40042c:	ae530000 	sw	s3,0(s2)
  400430:	8fbf0020 	lw	ra,32(sp)
  400434:	8fb3001c 	lw	s3,28(sp)
  400438:	8fb20018 	lw	s2,24(sp)
  40043c:	8fb10014 	lw	s1,20(sp)
  400440:	8fb00010 	lw	s0,16(sp)
  400444:	081002ac 	j	400ab0 <sesc_memfence>
  400448:	27bd0028 	addiu	sp,sp,40

0040044c <sesc_sema_init>:
  40044c:	ac850000 	sw	a1,0(a0)
  400450:	03e00008 	jr	ra
  400454:	00000000 	nop

00400458 <sesc_psema>:
  400458:	27bdffe8 	addiu	sp,sp,-24
  40045c:	afb00010 	sw	s0,16(sp)
  400460:	afbf0014 	sw	ra,20(sp)
  400464:	8c820000 	lw	v0,0(a0)
  400468:	00808021 	move	s0,a0
  40046c:	18400011 	blez	v0,4004b4 <sesc_psema+0x5c>
  400470:	00001821 	move	v1,zero
  400474:	24040001 	li	a0,1
  400478:	02002821 	move	a1,s0
  40047c:	0c10028c 	jal	400a30 <sesc_fetch_op>
  400480:	00003021 	move	a2,zero
  400484:	02002021 	move	a0,s0
  400488:	8fbf0014 	lw	ra,20(sp)
  40048c:	8fb00010 	lw	s0,16(sp)
  400490:	081002ac 	j	400ab0 <sesc_memfence>
  400494:	27bd0018 	addiu	sp,sp,24
  400498:	0c100269 	jal	4009a4 <sesc_yield>
  40049c:	00000000 	nop
  4004a0:	240303e8 	li	v1,1000
  4004a4:	8e040000 	lw	a0,0(s0)
  4004a8:	00000000 	nop
  4004ac:	1c80fff2 	bgtz	a0,400478 <sesc_psema+0x20>
  4004b0:	24040001 	li	a0,1
  4004b4:	2463ffff 	addiu	v1,v1,-1
  4004b8:	0461fffa 	bgez	v1,4004a4 <sesc_psema+0x4c>
  4004bc:	2404ffff 	li	a0,-1
  4004c0:	08100126 	j	400498 <sesc_psema+0x40>
  4004c4:	00000000 	nop

004004c8 <sesc_vsema>:
  4004c8:	27bdffe8 	addiu	sp,sp,-24
  4004cc:	afb00010 	sw	s0,16(sp)
  4004d0:	00802821 	move	a1,a0
  4004d4:	00808021 	move	s0,a0
  4004d8:	00003021 	move	a2,zero
  4004dc:	afbf0014 	sw	ra,20(sp)
  4004e0:	0c10028c 	jal	400a30 <sesc_fetch_op>
  4004e4:	00002021 	move	a0,zero
  4004e8:	02002021 	move	a0,s0
  4004ec:	8fbf0014 	lw	ra,20(sp)
  4004f0:	8fb00010 	lw	s0,16(sp)
  4004f4:	081002ac 	j	400ab0 <sesc_memfence>
  4004f8:	27bd0018 	addiu	sp,sp,24

004004fc <sesc_flag_init>:
  4004fc:	ac800010 	sw	zero,16(a0)
  400500:	ac800000 	sw	zero,0(a0)
  400504:	ac800008 	sw	zero,8(a0)
  400508:	03e00008 	jr	ra
  40050c:	ac800004 	sw	zero,4(a0)

00400510 <sesc_flag_wait>:
  400510:	27bdffd8 	addiu	sp,sp,-40
  400514:	afb00010 	sw	s0,16(sp)
  400518:	24020005 	li	v0,5
  40051c:	24900008 	addiu	s0,a0,8
  400520:	afb40020 	sw	s4,32(sp)
  400524:	afb3001c 	sw	s3,28(sp)
  400528:	afb20018 	sw	s2,24(sp)
  40052c:	afbf0024 	sw	ra,36(sp)
  400530:	afb10014 	sw	s1,20(sp)
  400534:	0080a021 	move	s4,a0
  400538:	ae020004 	sw	v0,4(s0)
  40053c:	24120001 	li	s2,1
  400540:	24130005 	li	s3,5
  400544:	24040002 	li	a0,2
  400548:	02002821 	move	a1,s0
  40054c:	0c10028c 	jal	400a30 <sesc_fetch_op>
  400550:	24060001 	li	a2,1
  400554:	14520013 	bne	v0,s2,4005a4 <sesc_flag_wait+0x94>
  400558:	00402021 	move	a0,v0
  40055c:	ae130004 	sw	s3,4(s0)
  400560:	8e050000 	lw	a1,0(s0)
  400564:	00000000 	nop
  400568:	14a4fff6 	bne	a1,a0,400544 <sesc_flag_wait+0x34>
  40056c:	00001821 	move	v1,zero
  400570:	08100162 	j	400588 <sesc_flag_wait+0x78>
  400574:	24110001 	li	s1,1
  400578:	8e040000 	lw	a0,0(s0)
  40057c:	00000000 	nop
  400580:	1491fff1 	bne	a0,s1,400548 <sesc_flag_wait+0x38>
  400584:	24040002 	li	a0,2
  400588:	2463ffff 	addiu	v1,v1,-1
  40058c:	0461fffa 	bgez	v1,400578 <sesc_flag_wait+0x68>
  400590:	2404ffff 	li	a0,-1
  400594:	0c100269 	jal	4009a4 <sesc_yield>
  400598:	00000000 	nop
  40059c:	0810015e 	j	400578 <sesc_flag_wait+0x68>
  4005a0:	240303e8 	li	v1,1000
  4005a4:	0c1002ac 	jal	400ab0 <sesc_memfence>
  4005a8:	02002021 	move	a0,s0
  4005ac:	8e830000 	lw	v1,0(s4)
  4005b0:	00000000 	nop
  4005b4:	1460001c 	bnez	v1,400628 <sesc_flag_wait+0x118>
  4005b8:	02002021 	move	a0,s0
  4005bc:	8e890004 	lw	t1,4(s4)
  4005c0:	00000000 	nop
  4005c4:	25280001 	addiu	t0,t1,1
  4005c8:	0c1002ac 	jal	400ab0 <sesc_memfence>
  4005cc:	ae880004 	sw	t0,4(s4)
  4005d0:	24070005 	li	a3,5
  4005d4:	ae070004 	sw	a3,4(s0)
  4005d8:	02002021 	move	a0,s0
  4005dc:	0c100297 	jal	400a5c <sesc_unlock_op>
  4005e0:	00002821 	move	a1,zero
  4005e4:	8e860010 	lw	a2,16(s4)
  4005e8:	26900010 	addiu	s0,s4,16
  4005ec:	18c00023 	blez	a2,40067c <sesc_flag_wait+0x16c>
  4005f0:	00001821 	move	v1,zero
  4005f4:	24040001 	li	a0,1
  4005f8:	02002821 	move	a1,s0
  4005fc:	0c10028c 	jal	400a30 <sesc_fetch_op>
  400600:	00003021 	move	a2,zero
  400604:	02002021 	move	a0,s0
  400608:	8fbf0024 	lw	ra,36(sp)
  40060c:	8fb40020 	lw	s4,32(sp)
  400610:	8fb3001c 	lw	s3,28(sp)
  400614:	8fb20018 	lw	s2,24(sp)
  400618:	8fb10014 	lw	s1,20(sp)
  40061c:	8fb00010 	lw	s0,16(sp)
  400620:	081002ac 	j	400ab0 <sesc_memfence>
  400624:	27bd0028 	addiu	sp,sp,40
  400628:	0c1002ac 	jal	400ab0 <sesc_memfence>
  40062c:	02002021 	move	a0,s0
  400630:	240b0005 	li	t3,5
  400634:	ae0b0004 	sw	t3,4(s0)
  400638:	02002021 	move	a0,s0
  40063c:	8fbf0024 	lw	ra,36(sp)
  400640:	8fb40020 	lw	s4,32(sp)
  400644:	8fb3001c 	lw	s3,28(sp)
  400648:	8fb20018 	lw	s2,24(sp)
  40064c:	8fb10014 	lw	s1,20(sp)
  400650:	8fb00010 	lw	s0,16(sp)
  400654:	00002821 	move	a1,zero
  400658:	08100297 	j	400a5c <sesc_unlock_op>
  40065c:	27bd0028 	addiu	sp,sp,40
  400660:	0c100269 	jal	4009a4 <sesc_yield>
  400664:	00000000 	nop
  400668:	240303e8 	li	v1,1000
  40066c:	8e0a0000 	lw	t2,0(s0)
  400670:	00000000 	nop
  400674:	1d40ffe0 	bgtz	t2,4005f8 <sesc_flag_wait+0xe8>
  400678:	24040001 	li	a0,1
  40067c:	2463ffff 	addiu	v1,v1,-1
  400680:	0461fffa 	bgez	v1,40066c <sesc_flag_wait+0x15c>
  400684:	2404ffff 	li	a0,-1
  400688:	08100198 	j	400660 <sesc_flag_wait+0x150>
  40068c:	00000000 	nop

00400690 <sesc_flag_set>:
  400690:	27bdffd8 	addiu	sp,sp,-40
  400694:	afb00010 	sw	s0,16(sp)
  400698:	24020005 	li	v0,5
  40069c:	24900008 	addiu	s0,a0,8
  4006a0:	afb40020 	sw	s4,32(sp)
  4006a4:	afb3001c 	sw	s3,28(sp)
  4006a8:	afb20018 	sw	s2,24(sp)
  4006ac:	afbf0024 	sw	ra,36(sp)
  4006b0:	afb10014 	sw	s1,20(sp)
  4006b4:	00809821 	move	s3,a0
  4006b8:	ae020004 	sw	v0,4(s0)
  4006bc:	24120001 	li	s2,1
  4006c0:	24140005 	li	s4,5
  4006c4:	24040002 	li	a0,2
  4006c8:	02002821 	move	a1,s0
  4006cc:	0c10028c 	jal	400a30 <sesc_fetch_op>
  4006d0:	24060001 	li	a2,1
  4006d4:	14520013 	bne	v0,s2,400724 <sesc_flag_set+0x94>
  4006d8:	00000000 	nop
  4006dc:	ae140004 	sw	s4,4(s0)
  4006e0:	8e040000 	lw	a0,0(s0)
  4006e4:	00000000 	nop
  4006e8:	1492fff6 	bne	a0,s2,4006c4 <sesc_flag_set+0x34>
  4006ec:	00001821 	move	v1,zero
  4006f0:	081001c2 	j	400708 <sesc_flag_set+0x78>
  4006f4:	24110001 	li	s1,1
  4006f8:	8e050000 	lw	a1,0(s0)
  4006fc:	00000000 	nop
  400700:	14b1fff1 	bne	a1,s1,4006c8 <sesc_flag_set+0x38>
  400704:	24040002 	li	a0,2
  400708:	2463ffff 	addiu	v1,v1,-1
  40070c:	0461fffa 	bgez	v1,4006f8 <sesc_flag_set+0x68>
  400710:	2404ffff 	li	a0,-1
  400714:	0c100269 	jal	4009a4 <sesc_yield>
  400718:	00000000 	nop
  40071c:	081001be 	j	4006f8 <sesc_flag_set+0x68>
  400720:	240303e8 	li	v1,1000
  400724:	0c1002ac 	jal	400ab0 <sesc_memfence>
  400728:	02002021 	move	a0,s0
  40072c:	8e620004 	lw	v0,4(s3)
  400730:	00000000 	nop
  400734:	1040000e 	beqz	v0,400770 <sesc_flag_set+0xe0>
  400738:	ae720000 	sw	s2,0(s3)
  40073c:	26710010 	addiu	s1,s3,16
  400740:	2443ffff 	addiu	v1,v0,-1
  400744:	ae630004 	sw	v1,4(s3)
  400748:	00002021 	move	a0,zero
  40074c:	02202821 	move	a1,s1
  400750:	0c10028c 	jal	400a30 <sesc_fetch_op>
  400754:	00003021 	move	a2,zero
  400758:	0c1002ac 	jal	400ab0 <sesc_memfence>
  40075c:	02202021 	move	a0,s1
  400760:	8e620004 	lw	v0,4(s3)
  400764:	00000000 	nop
  400768:	1440fff6 	bnez	v0,400744 <sesc_flag_set+0xb4>
  40076c:	2443ffff 	addiu	v1,v0,-1
  400770:	0c1002ac 	jal	400ab0 <sesc_memfence>
  400774:	02002021 	move	a0,s0
  400778:	24060005 	li	a2,5
  40077c:	ae060004 	sw	a2,4(s0)
  400780:	02002021 	move	a0,s0
  400784:	8fbf0024 	lw	ra,36(sp)
  400788:	8fb40020 	lw	s4,32(sp)
  40078c:	8fb3001c 	lw	s3,28(sp)
  400790:	8fb20018 	lw	s2,24(sp)
  400794:	8fb10014 	lw	s1,20(sp)
  400798:	8fb00010 	lw	s0,16(sp)
  40079c:	00002821 	move	a1,zero
  4007a0:	08100297 	j	400a5c <sesc_unlock_op>
  4007a4:	27bd0028 	addiu	sp,sp,40

004007a8 <sesc_flag_clear>:
  4007a8:	27bdffd8 	addiu	sp,sp,-40
  4007ac:	afb00010 	sw	s0,16(sp)
  4007b0:	24020005 	li	v0,5
  4007b4:	24900008 	addiu	s0,a0,8
  4007b8:	afb40020 	sw	s4,32(sp)
  4007bc:	afb3001c 	sw	s3,28(sp)
  4007c0:	afb20018 	sw	s2,24(sp)
  4007c4:	afbf0024 	sw	ra,36(sp)
  4007c8:	afb10014 	sw	s1,20(sp)
  4007cc:	00809021 	move	s2,a0
  4007d0:	ae020004 	sw	v0,4(s0)
  4007d4:	24130001 	li	s3,1
  4007d8:	24140005 	li	s4,5
  4007dc:	24040002 	li	a0,2
  4007e0:	02002821 	move	a1,s0
  4007e4:	0c10028c 	jal	400a30 <sesc_fetch_op>
  4007e8:	24060001 	li	a2,1
  4007ec:	14530013 	bne	v0,s3,40083c <sesc_flag_clear+0x94>
  4007f0:	00402021 	move	a0,v0
  4007f4:	ae140004 	sw	s4,4(s0)
  4007f8:	8e050000 	lw	a1,0(s0)
  4007fc:	00000000 	nop
  400800:	14a4fff6 	bne	a1,a0,4007dc <sesc_flag_clear+0x34>
  400804:	00001821 	move	v1,zero
  400808:	08100208 	j	400820 <sesc_flag_clear+0x78>
  40080c:	24110001 	li	s1,1
  400810:	8e040000 	lw	a0,0(s0)
  400814:	00000000 	nop
  400818:	1491fff1 	bne	a0,s1,4007e0 <sesc_flag_clear+0x38>
  40081c:	24040002 	li	a0,2
  400820:	2463ffff 	addiu	v1,v1,-1
  400824:	0461fffa 	bgez	v1,400810 <sesc_flag_clear+0x68>
  400828:	2404ffff 	li	a0,-1
  40082c:	0c100269 	jal	4009a4 <sesc_yield>
  400830:	00000000 	nop
  400834:	08100204 	j	400810 <sesc_flag_clear+0x68>
  400838:	240303e8 	li	v1,1000
  40083c:	0c1002ac 	jal	400ab0 <sesc_memfence>
  400840:	02002021 	move	a0,s0
  400844:	8e420004 	lw	v0,4(s2)
  400848:	00000000 	nop
  40084c:	1040000e 	beqz	v0,400888 <sesc_flag_clear+0xe0>
  400850:	ae400000 	sw	zero,0(s2)
  400854:	26510010 	addiu	s1,s2,16
  400858:	2443ffff 	addiu	v1,v0,-1
  40085c:	ae430004 	sw	v1,4(s2)
  400860:	00002021 	move	a0,zero
  400864:	02202821 	move	a1,s1
  400868:	0c10028c 	jal	400a30 <sesc_fetch_op>
  40086c:	00003021 	move	a2,zero
  400870:	0c1002ac 	jal	400ab0 <sesc_memfence>
  400874:	02202021 	move	a0,s1
  400878:	8e420004 	lw	v0,4(s2)
  40087c:	00000000 	nop
  400880:	1440fff6 	bnez	v0,40085c <sesc_flag_clear+0xb4>
  400884:	2443ffff 	addiu	v1,v0,-1
  400888:	0c1002ac 	jal	400ab0 <sesc_memfence>
  40088c:	02002021 	move	a0,s0
  400890:	24060005 	li	a2,5
  400894:	ae060004 	sw	a2,4(s0)
  400898:	02002021 	move	a0,s0
  40089c:	8fbf0024 	lw	ra,36(sp)
  4008a0:	8fb40020 	lw	s4,32(sp)
  4008a4:	8fb3001c 	lw	s3,28(sp)
  4008a8:	8fb20018 	lw	s2,24(sp)
  4008ac:	8fb10014 	lw	s1,20(sp)
  4008b0:	8fb00010 	lw	s0,16(sp)
  4008b4:	00002821 	move	a1,zero
  4008b8:	08100297 	j	400a5c <sesc_unlock_op>
  4008bc:	27bd0028 	addiu	sp,sp,40

004008c0 <sesc_init>:
  4008c0:	03e00008 	jr	ra
  4008c4:	00000000 	nop

004008c8 <sesc_get_num_cpus>:
  4008c8:	27bdffe8 	addiu	sp,sp,-24
  4008cc:	afbf0010 	sw	ra,16(sp)
  4008d0:	3c020049 	lui	v0,0x49
  4008d4:	8c47b190 	lw	a3,-20080(v0)
  4008d8:	3c040046 	lui	a0,0x46
  4008dc:	248469e0 	addiu	a0,a0,27104
  4008e0:	24050001 	li	a1,1
  4008e4:	0c105738 	jal	415ce0 <_IO_fwrite>
  4008e8:	24060059 	li	a2,89
  4008ec:	0c103b8c 	jal	40ee30 <exit>
  4008f0:	2404ffff 	li	a0,-1

004008f4 <sesc_spawn>:
  4008f4:	27bdffe8 	addiu	sp,sp,-24
  4008f8:	afbf0010 	sw	ra,16(sp)
  4008fc:	3c020049 	lui	v0,0x49
  400900:	8c47b190 	lw	a3,-20080(v0)
  400904:	3c040046 	lui	a0,0x46
  400908:	24846a3c 	addiu	a0,a0,27196
  40090c:	24050001 	li	a1,1
  400910:	0c105738 	jal	415ce0 <_IO_fwrite>
  400914:	24060052 	li	a2,82
  400918:	0c103b8c 	jal	40ee30 <exit>
  40091c:	2404ffff 	li	a0,-1

00400920 <sesc_self>:
  400920:	27bdffe8 	addiu	sp,sp,-24
  400924:	afbf0010 	sw	ra,16(sp)
  400928:	3c020049 	lui	v0,0x49
  40092c:	8c47b190 	lw	a3,-20080(v0)
  400930:	3c040046 	lui	a0,0x46
  400934:	24846a90 	addiu	a0,a0,27280
  400938:	24050001 	li	a1,1
  40093c:	0c105738 	jal	415ce0 <_IO_fwrite>
  400940:	24060051 	li	a2,81
  400944:	0c103b8c 	jal	40ee30 <exit>
  400948:	2404ffff 	li	a0,-1

0040094c <sesc_suspend>:
  40094c:	27bdffe8 	addiu	sp,sp,-24
  400950:	afbf0010 	sw	ra,16(sp)
  400954:	3c020049 	lui	v0,0x49
  400958:	8c47b190 	lw	a3,-20080(v0)
  40095c:	3c040046 	lui	a0,0x46
  400960:	24846ae4 	addiu	a0,a0,27364
  400964:	24050001 	li	a1,1
  400968:	0c105738 	jal	415ce0 <_IO_fwrite>
  40096c:	24060035 	li	a2,53
  400970:	0c103b8c 	jal	40ee30 <exit>
  400974:	2404ffff 	li	a0,-1

00400978 <sesc_resume>:
  400978:	27bdffe8 	addiu	sp,sp,-24
  40097c:	afbf0010 	sw	ra,16(sp)
  400980:	3c020049 	lui	v0,0x49
  400984:	8c47b190 	lw	a3,-20080(v0)
  400988:	3c040046 	lui	a0,0x46
  40098c:	24846b1c 	addiu	a0,a0,27420
  400990:	24050001 	li	a1,1
  400994:	0c105738 	jal	415ce0 <_IO_fwrite>
  400998:	24060034 	li	a2,52
  40099c:	0c103b8c 	jal	40ee30 <exit>
  4009a0:	2404ffff 	li	a0,-1

004009a4 <sesc_yield>:
  4009a4:	27bdffe8 	addiu	sp,sp,-24
  4009a8:	afbf0010 	sw	ra,16(sp)
  4009ac:	3c020049 	lui	v0,0x49
  4009b0:	8c47b190 	lw	a3,-20080(v0)
  4009b4:	3c040046 	lui	a0,0x46
  4009b8:	24846b54 	addiu	a0,a0,27476
  4009bc:	24050001 	li	a1,1
  4009c0:	0c105738 	jal	415ce0 <_IO_fwrite>
  4009c4:	24060033 	li	a2,51
  4009c8:	0c103b8c 	jal	40ee30 <exit>
  4009cc:	2404ffff 	li	a0,-1

004009d0 <sesc_exit>:
  4009d0:	27bdffe8 	addiu	sp,sp,-24
  4009d4:	afbf0010 	sw	ra,16(sp)
  4009d8:	3c020049 	lui	v0,0x49
  4009dc:	8c47b190 	lw	a3,-20080(v0)
  4009e0:	3c040046 	lui	a0,0x46
  4009e4:	24846b88 	addiu	a0,a0,27528
  4009e8:	24050001 	li	a1,1
  4009ec:	0c105738 	jal	415ce0 <_IO_fwrite>
  4009f0:	24060032 	li	a2,50
  4009f4:	0c103b8c 	jal	40ee30 <exit>
  4009f8:	2404ffff 	li	a0,-1

004009fc <sesc_wait>:
  4009fc:	27bdffe8 	addiu	sp,sp,-24
  400a00:	afbf0010 	sw	ra,16(sp)
  400a04:	3c020049 	lui	v0,0x49
  400a08:	8c47b190 	lw	a3,-20080(v0)
  400a0c:	3c040046 	lui	a0,0x46
  400a10:	24846bbc 	addiu	a0,a0,27580
  400a14:	24050001 	li	a1,1
  400a18:	0c105738 	jal	415ce0 <_IO_fwrite>
  400a1c:	24060032 	li	a2,50
  400a20:	0c103b8c 	jal	40ee30 <exit>
  400a24:	2404ffff 	li	a0,-1

00400a28 <sesc_pseudoreset>:
  400a28:	03e00008 	jr	ra
  400a2c:	00000000 	nop

00400a30 <sesc_fetch_op>:
  400a30:	27bdffe8 	addiu	sp,sp,-24
  400a34:	afbf0010 	sw	ra,16(sp)
  400a38:	3c020049 	lui	v0,0x49
  400a3c:	8c47b190 	lw	a3,-20080(v0)
  400a40:	3c040046 	lui	a0,0x46
  400a44:	24846bf0 	addiu	a0,a0,27632
  400a48:	24050001 	li	a1,1
  400a4c:	0c105738 	jal	415ce0 <_IO_fwrite>
  400a50:	24060036 	li	a2,54
  400a54:	0c103b8c 	jal	40ee30 <exit>
  400a58:	2404ffff 	li	a0,-1

00400a5c <sesc_unlock_op>:
  400a5c:	27bdffe8 	addiu	sp,sp,-24
  400a60:	afbf0010 	sw	ra,16(sp)
  400a64:	3c020049 	lui	v0,0x49
  400a68:	8c47b190 	lw	a3,-20080(v0)
  400a6c:	3c040046 	lui	a0,0x46
  400a70:	24846c28 	addiu	a0,a0,27688
  400a74:	24050001 	li	a1,1
  400a78:	0c105738 	jal	415ce0 <_IO_fwrite>
  400a7c:	24060037 	li	a2,55
  400a80:	0c103b8c 	jal	40ee30 <exit>
  400a84:	2404ffff 	li	a0,-1
	...

00400a90 <sesc_preevent>:
  400a90:	03e00008 	jr	ra
  400a94:	00000000 	nop

00400a98 <sesc_preevent_>:
  400a98:	03e00008 	jr	ra
  400a9c:	00000000 	nop

00400aa0 <sesc_postevent>:
  400aa0:	03e00008 	jr	ra
  400aa4:	00000000 	nop

00400aa8 <sesc_postevent_>:
  400aa8:	03e00008 	jr	ra
  400aac:	00000000 	nop

00400ab0 <sesc_memfence>:
  400ab0:	03e00008 	jr	ra
  400ab4:	00000000 	nop

00400ab8 <sesc_memfence_>:
  400ab8:	03e00008 	jr	ra
  400abc:	00000000 	nop

00400ac0 <sesc_acquire>:
  400ac0:	03e00008 	jr	ra
  400ac4:	00000000 	nop

00400ac8 <sesc_acquire_>:
  400ac8:	03e00008 	jr	ra
  400acc:	00000000 	nop

00400ad0 <sesc_release>:
  400ad0:	03e00008 	jr	ra
  400ad4:	00000000 	nop

00400ad8 <sesc_release_>:
  400ad8:	03e00008 	jr	ra
  400adc:	00000000 	nop

00400ae0 <sesc_tvsub>:
  400ae0:	00c04021 	move	t0,a2
  400ae4:	8d030004 	lw	v1,4(t0)
  400ae8:	8ca60004 	lw	a2,4(a1)
  400aec:	00a03821 	move	a3,a1
  400af0:	8d020000 	lw	v0,0(t0)
  400af4:	8ca50000 	lw	a1,0(a1)
  400af8:	00c33023 	subu	a2,a2,v1
  400afc:	04c00011 	bltz	a2,400b44 <sesc_tvsub+0x64>
  400b00:	00a22823 	subu	a1,a1,v0
  400b04:	ac860004 	sw	a2,4(a0)
  400b08:	8c8b0004 	lw	t3,4(a0)
  400b0c:	00000000 	nop
  400b10:	05600008 	bltz	t3,400b34 <sesc_tvsub+0x54>
  400b14:	00000000 	nop
  400b18:	ac850000 	sw	a1,0(a0)
  400b1c:	8cec0000 	lw	t4,0(a3)
  400b20:	8d0d0000 	lw	t5,0(t0)
  400b24:	00000000 	nop
  400b28:	018d382a 	slt	a3,t4,t5
  400b2c:	10e00003 	beqz	a3,400b3c <sesc_tvsub+0x5c>
  400b30:	00000000 	nop
  400b34:	ac800004 	sw	zero,4(a0)
  400b38:	ac800000 	sw	zero,0(a0)
  400b3c:	03e00008 	jr	ra
  400b40:	00000000 	nop
  400b44:	3c0a000f 	lui	t2,0xf
  400b48:	35494240 	ori	t1,t2,0x4240
  400b4c:	18a0ffed 	blez	a1,400b04 <sesc_tvsub+0x24>
  400b50:	00c91021 	addu	v0,a2,t1
  400b54:	24a5ffff 	addiu	a1,a1,-1
  400b58:	081002c2 	j	400b08 <sesc_tvsub+0x28>
  400b5c:	ac820004 	sw	v0,4(a0)

00400b60 <sesc_simulation_mark>:
  400b60:	27bdffc0 	addiu	sp,sp,-64
  400b64:	afb1002c 	sw	s1,44(sp)
  400b68:	afbf0038 	sw	ra,56(sp)
  400b6c:	afb30034 	sw	s3,52(sp)
  400b70:	afb20030 	sw	s2,48(sp)
  400b74:	afb00028 	sw	s0,40(sp)
  400b78:	3c111000 	lui	s1,0x1000
  400b7c:	8e220290 	lw	v0,656(s1)
  400b80:	00000000 	nop
  400b84:	1040001b 	beqz	v0,400bf4 <sesc_simulation_mark+0x94>
  400b88:	3c131000 	lui	s3,0x1000
  400b8c:	8e260290 	lw	a2,656(s1)
  400b90:	8e670294 	lw	a3,660(s3)
  400b94:	3c121000 	lui	s2,0x1000
  400b98:	10c7002b 	beq	a2,a3,400c48 <sesc_simulation_mark+0xe8>
  400b9c:	3c101000 	lui	s0,0x1000
  400ba0:	3c110049 	lui	s1,0x49
  400ba4:	8e24b190 	lw	a0,-20080(s1)
  400ba8:	8e480298 	lw	t0,664(s2)
  400bac:	3c090046 	lui	t1,0x46
  400bb0:	25256c60 	addiu	a1,t1,27744
  400bb4:	0c105558 	jal	415560 <fprintf>
  400bb8:	afa80010 	sw	t0,16(sp)
  400bbc:	8e450298 	lw	a1,664(s2)
  400bc0:	8e020290 	lw	v0,656(s0)
  400bc4:	00000000 	nop
  400bc8:	1045003a 	beq	v0,a1,400cb4 <sesc_simulation_mark+0x154>
  400bcc:	27a40018 	addiu	a0,sp,24
  400bd0:	24510001 	addiu	s1,v0,1
  400bd4:	ae110290 	sw	s1,656(s0)
  400bd8:	8fbf0038 	lw	ra,56(sp)
  400bdc:	8fb30034 	lw	s3,52(sp)
  400be0:	8fb20030 	lw	s2,48(sp)
  400be4:	8fb1002c 	lw	s1,44(sp)
  400be8:	8fb00028 	lw	s0,40(sp)
  400bec:	03e00008 	jr	ra
  400bf0:	27bd0040 	addiu	sp,sp,64
  400bf4:	3c041000 	lui	a0,0x1000
  400bf8:	2484029c 	addiu	a0,a0,668
  400bfc:	00002821 	move	a1,zero
  400c00:	0c108cf2 	jal	4233c8 <__gettimeofday>
  400c04:	3c100046 	lui	s0,0x46
  400c08:	0c103b3c 	jal	40ecf0 <getenv>
  400c0c:	26046c9c 	addiu	a0,s0,27804
  400c10:	1440001f 	bnez	v0,400c90 <sesc_simulation_mark+0x130>
  400c14:	3c131000 	lui	s3,0x1000
  400c18:	3c100046 	lui	s0,0x46
  400c1c:	0c103b3c 	jal	40ecf0 <getenv>
  400c20:	26046ca4 	addiu	a0,s0,27812
  400c24:	14400010 	bnez	v0,400c68 <sesc_simulation_mark+0x108>
  400c28:	2402ffff 	li	v0,-1
  400c2c:	3c121000 	lui	s2,0x1000
  400c30:	ae420298 	sw	v0,664(s2)
  400c34:	8e260290 	lw	a2,656(s1)
  400c38:	8e670294 	lw	a3,660(s3)
  400c3c:	00000000 	nop
  400c40:	14c7ffd7 	bne	a2,a3,400ba0 <sesc_simulation_mark+0x40>
  400c44:	3c101000 	lui	s0,0x1000
  400c48:	3c031000 	lui	v1,0x1000
  400c4c:	2464029c 	addiu	a0,v1,668
  400c50:	0c108cf2 	jal	4233c8 <__gettimeofday>
  400c54:	00002821 	move	a1,zero
  400c58:	8e260290 	lw	a2,656(s1)
  400c5c:	8e670294 	lw	a3,660(s3)
  400c60:	081002e9 	j	400ba4 <sesc_simulation_mark+0x44>
  400c64:	3c110049 	lui	s1,0x49
  400c68:	0c103b3c 	jal	40ecf0 <getenv>
  400c6c:	26046ca4 	addiu	a0,s0,27812
  400c70:	00402021 	move	a0,v0
  400c74:	00002821 	move	a1,zero
  400c78:	2406000a 	li	a2,10
  400c7c:	0c103c44 	jal	40f110 <__strtol_internal>
  400c80:	00003821 	move	a3,zero
  400c84:	3c121000 	lui	s2,0x1000
  400c88:	0810030d 	j	400c34 <sesc_simulation_mark+0xd4>
  400c8c:	ae420298 	sw	v0,664(s2)
  400c90:	0c103b3c 	jal	40ecf0 <getenv>
  400c94:	26046c9c 	addiu	a0,s0,27804
  400c98:	00402021 	move	a0,v0
  400c9c:	00002821 	move	a1,zero
  400ca0:	2406000a 	li	a2,10
  400ca4:	0c103c44 	jal	40f110 <__strtol_internal>
  400ca8:	00003821 	move	a3,zero
  400cac:	08100306 	j	400c18 <sesc_simulation_mark+0xb8>
  400cb0:	ae620294 	sw	v0,660(s3)
  400cb4:	0c108cf2 	jal	4233c8 <__gettimeofday>
  400cb8:	00002821 	move	a1,zero
  400cbc:	3c0a1000 	lui	t2,0x1000
  400cc0:	2546029c 	addiu	a2,t2,668
  400cc4:	8ccc0004 	lw	t4,4(a2)
  400cc8:	8fad001c 	lw	t5,28(sp)
  400ccc:	8d47029c 	lw	a3,668(t2)
  400cd0:	8fab0018 	lw	t3,24(sp)
  400cd4:	01ac5023 	subu	t2,t5,t4
  400cd8:	01672023 	subu	a0,t3,a3
  400cdc:	05400039 	bltz	t2,400dc4 <sesc_simulation_mark+0x264>
  400ce0:	27a50020 	addiu	a1,sp,32
  400ce4:	afaa0024 	sw	t2,36(sp)
  400ce8:	afa40020 	sw	a0,32(sp)
  400cec:	8cb00004 	lw	s0,4(a1)
  400cf0:	00000000 	nop
  400cf4:	0600003b 	bltz	s0,400de4 <sesc_simulation_mark+0x284>
  400cf8:	00000000 	nop
  400cfc:	8fb20018 	lw	s2,24(sp)
  400d00:	8cd30000 	lw	s3,0(a2)
  400d04:	00000000 	nop
  400d08:	0253302a 	slt	a2,s2,s3
  400d0c:	14c00035 	bnez	a2,400de4 <sesc_simulation_mark+0x284>
  400d10:	00000000 	nop
  400d14:	00047fc3 	sra	t7,a0,0x1f
  400d18:	000f3140 	sll	a2,t7,0x5
  400d1c:	000496c2 	srl	s2,a0,0x1b
  400d20:	00d26825 	or	t5,a2,s2
  400d24:	00047140 	sll	t6,a0,0x5
  400d28:	01c4602b 	sltu	t4,t6,a0
  400d2c:	01af3823 	subu	a3,t5,t7
  400d30:	01c41823 	subu	v1,t6,a0
  400d34:	00ec1023 	subu	v0,a3,t4
  400d38:	00025980 	sll	t3,v0,0x6
  400d3c:	00034e82 	srl	t1,v1,0x1a
  400d40:	00032980 	sll	a1,v1,0x6
  400d44:	00808021 	move	s0,a0
  400d48:	01692025 	or	a0,t3,t1
  400d4c:	00a3402b 	sltu	t0,a1,v1
  400d50:	0082f823 	subu	ra,a0,v0
  400d54:	00a39023 	subu	s2,a1,v1
  400d58:	03e8c823 	subu	t9,ra,t0
  400d5c:	001998c0 	sll	s3,t9,0x3
  400d60:	0012c742 	srl	t8,s2,0x1d
  400d64:	001230c0 	sll	a2,s2,0x3
  400d68:	00d05821 	addu	t3,a2,s0
  400d6c:	02787025 	or	t6,s3,t8
  400d70:	01401821 	move	v1,t2
  400d74:	000a17c3 	sra	v0,t2,0x1f
  400d78:	01cf6821 	addu	t5,t6,t7
  400d7c:	0170502b 	sltu	t2,t3,s0
  400d80:	01aa6021 	addu	t4,t5,t2
  400d84:	000b3e82 	srl	a3,t3,0x1a
  400d88:	000c4980 	sll	t1,t4,0x6
  400d8c:	000b4180 	sll	t0,t3,0x6
  400d90:	01272025 	or	a0,t1,a3
  400d94:	0103c821 	addu	t9,t0,v1
  400d98:	0323282b 	sltu	a1,t9,v1
  400d9c:	0082f821 	addu	ra,a0,v0
  400da0:	03e5c021 	addu	t8,ra,a1
  400da4:	8e24b190 	lw	a0,-20080(s1)
  400da8:	3c110046 	lui	s1,0x46
  400dac:	26256cac 	addiu	a1,s1,27820
  400db0:	03203821 	move	a3,t9
  400db4:	0c105558 	jal	415560 <fprintf>
  400db8:	03003021 	move	a2,t8
  400dbc:	0c103b8c 	jal	40ee30 <exit>
  400dc0:	00002021 	move	a0,zero
  400dc4:	1880ffc7 	blez	a0,400ce4 <sesc_simulation_mark+0x184>
  400dc8:	3c0f000f 	lui	t7,0xf
  400dcc:	35ee4240 	ori	t6,t7,0x4240
  400dd0:	014e5021 	addu	t2,t2,t6
  400dd4:	2484ffff 	addiu	a0,a0,-1
  400dd8:	afa40020 	sw	a0,32(sp)
  400ddc:	0810033b 	j	400cec <sesc_simulation_mark+0x18c>
  400de0:	afaa0024 	sw	t2,36(sp)
  400de4:	aca00004 	sw	zero,4(a1)
  400de8:	aca00000 	sw	zero,0(a1)
  400dec:	8fa40020 	lw	a0,32(sp)
  400df0:	8faa0024 	lw	t2,36(sp)
  400df4:	08100346 	j	400d18 <sesc_simulation_mark+0x1b8>
  400df8:	00047fc3 	sra	t7,a0,0x1f

00400dfc <sesc_simulation_mark_>:
  400dfc:	27bdffc0 	addiu	sp,sp,-64
  400e00:	afb1002c 	sw	s1,44(sp)
  400e04:	afbf0038 	sw	ra,56(sp)
  400e08:	afb30034 	sw	s3,52(sp)
  400e0c:	afb20030 	sw	s2,48(sp)
  400e10:	afb00028 	sw	s0,40(sp)
  400e14:	3c111000 	lui	s1,0x1000
  400e18:	8e220290 	lw	v0,656(s1)
  400e1c:	00000000 	nop
  400e20:	1040001b 	beqz	v0,400e90 <sesc_simulation_mark_+0x94>
  400e24:	3c131000 	lui	s3,0x1000
  400e28:	8e260290 	lw	a2,656(s1)
  400e2c:	8e670294 	lw	a3,660(s3)
  400e30:	3c121000 	lui	s2,0x1000
  400e34:	10c7002b 	beq	a2,a3,400ee4 <sesc_simulation_mark_+0xe8>
  400e38:	3c101000 	lui	s0,0x1000
  400e3c:	3c110049 	lui	s1,0x49
  400e40:	8e24b190 	lw	a0,-20080(s1)
  400e44:	8e480298 	lw	t0,664(s2)
  400e48:	3c090046 	lui	t1,0x46
  400e4c:	25256c60 	addiu	a1,t1,27744
  400e50:	0c105558 	jal	415560 <fprintf>
  400e54:	afa80010 	sw	t0,16(sp)
  400e58:	8e450298 	lw	a1,664(s2)
  400e5c:	8e020290 	lw	v0,656(s0)
  400e60:	00000000 	nop
  400e64:	1045003a 	beq	v0,a1,400f50 <sesc_simulation_mark_+0x154>
  400e68:	27a40018 	addiu	a0,sp,24
  400e6c:	24510001 	addiu	s1,v0,1
  400e70:	ae110290 	sw	s1,656(s0)
  400e74:	8fbf0038 	lw	ra,56(sp)
  400e78:	8fb30034 	lw	s3,52(sp)
  400e7c:	8fb20030 	lw	s2,48(sp)
  400e80:	8fb1002c 	lw	s1,44(sp)
  400e84:	8fb00028 	lw	s0,40(sp)
  400e88:	03e00008 	jr	ra
  400e8c:	27bd0040 	addiu	sp,sp,64
  400e90:	3c041000 	lui	a0,0x1000
  400e94:	2484029c 	addiu	a0,a0,668
  400e98:	00002821 	move	a1,zero
  400e9c:	0c108cf2 	jal	4233c8 <__gettimeofday>
  400ea0:	3c100046 	lui	s0,0x46
  400ea4:	0c103b3c 	jal	40ecf0 <getenv>
  400ea8:	26046c9c 	addiu	a0,s0,27804
  400eac:	1440001f 	bnez	v0,400f2c <sesc_simulation_mark_+0x130>
  400eb0:	3c131000 	lui	s3,0x1000
  400eb4:	3c100046 	lui	s0,0x46
  400eb8:	0c103b3c 	jal	40ecf0 <getenv>
  400ebc:	26046ca4 	addiu	a0,s0,27812
  400ec0:	14400010 	bnez	v0,400f04 <sesc_simulation_mark_+0x108>
  400ec4:	2402ffff 	li	v0,-1
  400ec8:	3c121000 	lui	s2,0x1000
  400ecc:	ae420298 	sw	v0,664(s2)
  400ed0:	8e260290 	lw	a2,656(s1)
  400ed4:	8e670294 	lw	a3,660(s3)
  400ed8:	00000000 	nop
  400edc:	14c7ffd7 	bne	a2,a3,400e3c <sesc_simulation_mark_+0x40>
  400ee0:	3c101000 	lui	s0,0x1000
  400ee4:	3c031000 	lui	v1,0x1000
  400ee8:	2464029c 	addiu	a0,v1,668
  400eec:	0c108cf2 	jal	4233c8 <__gettimeofday>
  400ef0:	00002821 	move	a1,zero
  400ef4:	8e260290 	lw	a2,656(s1)
  400ef8:	8e670294 	lw	a3,660(s3)
  400efc:	08100390 	j	400e40 <sesc_simulation_mark_+0x44>
  400f00:	3c110049 	lui	s1,0x49
  400f04:	0c103b3c 	jal	40ecf0 <getenv>
  400f08:	26046ca4 	addiu	a0,s0,27812
  400f0c:	00402021 	move	a0,v0
  400f10:	00002821 	move	a1,zero
  400f14:	2406000a 	li	a2,10
  400f18:	0c103c44 	jal	40f110 <__strtol_internal>
  400f1c:	00003821 	move	a3,zero
  400f20:	3c121000 	lui	s2,0x1000
  400f24:	081003b4 	j	400ed0 <sesc_simulation_mark_+0xd4>
  400f28:	ae420298 	sw	v0,664(s2)
  400f2c:	0c103b3c 	jal	40ecf0 <getenv>
  400f30:	26046c9c 	addiu	a0,s0,27804
  400f34:	00402021 	move	a0,v0
  400f38:	00002821 	move	a1,zero
  400f3c:	2406000a 	li	a2,10
  400f40:	0c103c44 	jal	40f110 <__strtol_internal>
  400f44:	00003821 	move	a3,zero
  400f48:	081003ad 	j	400eb4 <sesc_simulation_mark_+0xb8>
  400f4c:	ae620294 	sw	v0,660(s3)
  400f50:	0c108cf2 	jal	4233c8 <__gettimeofday>
  400f54:	00002821 	move	a1,zero
  400f58:	3c0a1000 	lui	t2,0x1000
  400f5c:	2546029c 	addiu	a2,t2,668
  400f60:	8ccc0004 	lw	t4,4(a2)
  400f64:	8fad001c 	lw	t5,28(sp)
  400f68:	8d47029c 	lw	a3,668(t2)
  400f6c:	8fab0018 	lw	t3,24(sp)
  400f70:	01ac5023 	subu	t2,t5,t4
  400f74:	01672023 	subu	a0,t3,a3
  400f78:	05400039 	bltz	t2,401060 <sesc_simulation_mark_+0x264>
  400f7c:	27a50020 	addiu	a1,sp,32
  400f80:	afaa0024 	sw	t2,36(sp)
  400f84:	afa40020 	sw	a0,32(sp)
  400f88:	8cb00004 	lw	s0,4(a1)
  400f8c:	00000000 	nop
  400f90:	0600003b 	bltz	s0,401080 <sesc_simulation_mark_+0x284>
  400f94:	00000000 	nop
  400f98:	8fb20018 	lw	s2,24(sp)
  400f9c:	8cd30000 	lw	s3,0(a2)
  400fa0:	00000000 	nop
  400fa4:	0253302a 	slt	a2,s2,s3
  400fa8:	14c00035 	bnez	a2,401080 <sesc_simulation_mark_+0x284>
  400fac:	00000000 	nop
  400fb0:	00047fc3 	sra	t7,a0,0x1f
  400fb4:	000f3140 	sll	a2,t7,0x5
  400fb8:	000496c2 	srl	s2,a0,0x1b
  400fbc:	00d26825 	or	t5,a2,s2
  400fc0:	00047140 	sll	t6,a0,0x5
  400fc4:	01c4602b 	sltu	t4,t6,a0
  400fc8:	01af3823 	subu	a3,t5,t7
  400fcc:	01c41823 	subu	v1,t6,a0
  400fd0:	00ec1023 	subu	v0,a3,t4
  400fd4:	00025980 	sll	t3,v0,0x6
  400fd8:	00034e82 	srl	t1,v1,0x1a
  400fdc:	00032980 	sll	a1,v1,0x6
  400fe0:	00808021 	move	s0,a0
  400fe4:	01692025 	or	a0,t3,t1
  400fe8:	00a3402b 	sltu	t0,a1,v1
  400fec:	0082f823 	subu	ra,a0,v0
  400ff0:	00a39023 	subu	s2,a1,v1
  400ff4:	03e8c823 	subu	t9,ra,t0
  400ff8:	001998c0 	sll	s3,t9,0x3
  400ffc:	0012c742 	srl	t8,s2,0x1d
  401000:	001230c0 	sll	a2,s2,0x3
  401004:	00d05821 	addu	t3,a2,s0
  401008:	02787025 	or	t6,s3,t8
  40100c:	01401821 	move	v1,t2
  401010:	000a17c3 	sra	v0,t2,0x1f
  401014:	01cf6821 	addu	t5,t6,t7
  401018:	0170502b 	sltu	t2,t3,s0
  40101c:	01aa6021 	addu	t4,t5,t2
  401020:	000b3e82 	srl	a3,t3,0x1a
  401024:	000c4980 	sll	t1,t4,0x6
  401028:	000b4180 	sll	t0,t3,0x6
  40102c:	01272025 	or	a0,t1,a3
  401030:	0103c821 	addu	t9,t0,v1
  401034:	0323282b 	sltu	a1,t9,v1
  401038:	0082f821 	addu	ra,a0,v0
  40103c:	03e5c021 	addu	t8,ra,a1
  401040:	8e24b190 	lw	a0,-20080(s1)
  401044:	3c110046 	lui	s1,0x46
  401048:	26256cac 	addiu	a1,s1,27820
  40104c:	03203821 	move	a3,t9
  401050:	0c105558 	jal	415560 <fprintf>
  401054:	03003021 	move	a2,t8
  401058:	0c103b8c 	jal	40ee30 <exit>
  40105c:	00002021 	move	a0,zero
  401060:	1880ffc7 	blez	a0,400f80 <sesc_simulation_mark_+0x184>
  401064:	3c0f000f 	lui	t7,0xf
  401068:	35ee4240 	ori	t6,t7,0x4240
  40106c:	014e5021 	addu	t2,t2,t6
  401070:	2484ffff 	addiu	a0,a0,-1
  401074:	afa40020 	sw	a0,32(sp)
  401078:	081003e2 	j	400f88 <sesc_simulation_mark_+0x18c>
  40107c:	afaa0024 	sw	t2,36(sp)
  401080:	aca00004 	sw	zero,4(a1)
  401084:	aca00000 	sw	zero,0(a1)
  401088:	8fa40020 	lw	a0,32(sp)
  40108c:	8faa0024 	lw	t2,36(sp)
  401090:	081003ed 	j	400fb4 <sesc_simulation_mark_+0x1b8>
  401094:	00047fc3 	sra	t7,a0,0x1f

00401098 <sesc_simulation_mark_id>:
  401098:	27bdffe8 	addiu	sp,sp,-24
  40109c:	afbf0014 	sw	ra,20(sp)
  4010a0:	afb00010 	sw	s0,16(sp)
  4010a4:	3c050049 	lui	a1,0x49
  4010a8:	8ca2a9b0 	lw	v0,-22096(a1)
  4010ac:	00000000 	nop
  4010b0:	10400017 	beqz	v0,401110 <sesc_simulation_mark_id+0x78>
  4010b4:	00803021 	move	a2,a0
  4010b8:	3c031000 	lui	v1,0x1000
  4010bc:	246202a4 	addiu	v0,v1,676
  4010c0:	240300ff 	li	v1,255
  4010c4:	244c0004 	addiu	t4,v0,4
  4010c8:	258b0004 	addiu	t3,t4,4
  4010cc:	256a0004 	addiu	t2,t3,4
  4010d0:	25490004 	addiu	t1,t2,4
  4010d4:	25280004 	addiu	t0,t1,4
  4010d8:	25070004 	addiu	a3,t0,4
  4010dc:	24e40004 	addiu	a0,a3,4
  4010e0:	2463fff8 	addiu	v1,v1,-8
  4010e4:	ac400000 	sw	zero,0(v0)
  4010e8:	ad800000 	sw	zero,0(t4)
  4010ec:	24820004 	addiu	v0,a0,4
  4010f0:	ad600000 	sw	zero,0(t3)
  4010f4:	ad400000 	sw	zero,0(t2)
  4010f8:	ad200000 	sw	zero,0(t1)
  4010fc:	ad000000 	sw	zero,0(t0)
  401100:	ace00000 	sw	zero,0(a3)
  401104:	0461ffef 	bgez	v1,4010c4 <sesc_simulation_mark_id+0x2c>
  401108:	ac800000 	sw	zero,0(a0)
  40110c:	aca0a9b0 	sw	zero,-22096(a1)
  401110:	3c050049 	lui	a1,0x49
  401114:	8ca4b190 	lw	a0,-20080(a1)
  401118:	04c00013 	bltz	a2,401168 <sesc_simulation_mark_id+0xd0>
  40111c:	00c08021 	move	s0,a2
  401120:	00101a03 	sra	v1,s0,0x8
  401124:	00031200 	sll	v0,v1,0x8
  401128:	00c2f823 	subu	ra,a2,v0
  40112c:	3c191000 	lui	t9,0x1000
  401130:	001f7880 	sll	t7,ra,0x2
  401134:	273802a4 	addiu	t8,t9,676
  401138:	01f88021 	addu	s0,t7,t8
  40113c:	8e070000 	lw	a3,0(s0)
  401140:	3c0e0046 	lui	t6,0x46
  401144:	0c105558 	jal	415560 <fprintf>
  401148:	25c56cd4 	addiu	a1,t6,27860
  40114c:	8e0d0000 	lw	t5,0(s0)
  401150:	8fbf0014 	lw	ra,20(sp)
  401154:	25a60001 	addiu	a2,t5,1
  401158:	ae060000 	sw	a2,0(s0)
  40115c:	8fb00010 	lw	s0,16(sp)
  401160:	03e00008 	jr	ra
  401164:	27bd0018 	addiu	sp,sp,24
  401168:	24d000ff 	addiu	s0,a2,255
  40116c:	00101a03 	sra	v1,s0,0x8
  401170:	00031200 	sll	v0,v1,0x8
  401174:	00c2f823 	subu	ra,a2,v0
  401178:	3c191000 	lui	t9,0x1000
  40117c:	001f7880 	sll	t7,ra,0x2
  401180:	273802a4 	addiu	t8,t9,676
  401184:	01f88021 	addu	s0,t7,t8
  401188:	8e070000 	lw	a3,0(s0)
  40118c:	3c0e0046 	lui	t6,0x46
  401190:	0c105558 	jal	415560 <fprintf>
  401194:	25c56cd4 	addiu	a1,t6,27860
  401198:	8e0d0000 	lw	t5,0(s0)
  40119c:	8fbf0014 	lw	ra,20(sp)
  4011a0:	25a60001 	addiu	a2,t5,1
  4011a4:	ae060000 	sw	a2,0(s0)
  4011a8:	8fb00010 	lw	s0,16(sp)
  4011ac:	03e00008 	jr	ra
  4011b0:	27bd0018 	addiu	sp,sp,24

004011b4 <sesc_simulation_mark_id_>:
  4011b4:	08100426 	j	401098 <sesc_simulation_mark_id>
  4011b8:	00000000 	nop

004011bc <sesc_finish>:
  4011bc:	27bdffe8 	addiu	sp,sp,-24
  4011c0:	afbf0010 	sw	ra,16(sp)
  4011c4:	3c020049 	lui	v0,0x49
  4011c8:	8c47b190 	lw	a3,-20080(v0)
  4011cc:	3c040046 	lui	a0,0x46
  4011d0:	24846cfc 	addiu	a0,a0,27900
  4011d4:	24050001 	li	a1,1
  4011d8:	0c105738 	jal	415ce0 <_IO_fwrite>
  4011dc:	24060030 	li	a2,48
  4011e0:	0c103b8c 	jal	40ee30 <exit>
  4011e4:	00002021 	move	a0,zero

004011e8 <sesc_fast_sim_begin>:
  4011e8:	03e00008 	jr	ra
  4011ec:	00000000 	nop

004011f0 <sesc_fast_sim_begin_>:
  4011f0:	03e00008 	jr	ra
  4011f4:	00000000 	nop

004011f8 <sesc_fast_sim_end>:
  4011f8:	03e00008 	jr	ra
  4011fc:	00000000 	nop

00401200 <sesc_fast_sim_end_>:
  401200:	03e00008 	jr	ra
  401204:	00000000 	nop

00401208 <sesc_sysconf>:
  401208:	03e00008 	jr	ra
  40120c:	00000000 	nop

00401210 <cluster_exec>:
  401210:	27bdff88 	addiu	sp,sp,-120
  401214:	afa40078 	sw	a0,120(sp)
  401218:	00052080 	sll	a0,a1,0x2
  40121c:	afbe0050 	sw	s8,80(sp)
  401220:	afb50044 	sw	s5,68(sp)
  401224:	f7ba0070 	sdc1	$f26,112(sp)
  401228:	afbf0054 	sw	ra,84(sp)
  40122c:	afb7004c 	sw	s7,76(sp)
  401230:	afb60048 	sw	s6,72(sp)
  401234:	afb40040 	sw	s4,64(sp)
  401238:	afb3003c 	sw	s3,60(sp)
  40123c:	afb20038 	sw	s2,56(sp)
  401240:	afb10034 	sw	s1,52(sp)
  401244:	afb00030 	sw	s0,48(sp)
  401248:	f7b80068 	sdc1	$f24,104(sp)
  40124c:	f7b60060 	sdc1	$f22,96(sp)
  401250:	f7b40058 	sdc1	$f20,88(sp)
  401254:	00a0a821 	move	s5,a1
  401258:	afa60080 	sw	a2,128(sp)
  40125c:	00e0f021 	move	s8,a3
  401260:	0c107eec 	jal	41fbb0 <__libc_malloc>
  401264:	c7ba0094 	lwc1	$f26,148(sp)
  401268:	104000cc 	beqz	v0,40159c <cluster_exec+0x38c>
  40126c:	afa20020 	sw	v0,32(sp)
  401270:	0c100a3c 	jal	4028f0 <random_alloc>
  401274:	00000000 	nop
  401278:	104000c0 	beqz	v0,40157c <cluster_exec+0x36c>
  40127c:	afa20024 	sw	v0,36(sp)
  401280:	8fa80088 	lw	t0,136(sp)
  401284:	15000034 	bnez	t0,401358 <cluster_exec+0x148>
  401288:	8fb0008c 	lw	s0,140(sp)
  40128c:	8fb70090 	lw	s7,144(sp)
  401290:	02f0102a 	slt	v0,s7,s0
  401294:	1440001b 	bnez	v0,401304 <cluster_exec+0xf4>
  401298:	00000000 	nop
  40129c:	8fa40024 	lw	a0,36(sp)
  4012a0:	0c100a66 	jal	402998 <random_seed>
  4012a4:	24050007 	li	a1,7
  4012a8:	8fb10024 	lw	s1,36(sp)
  4012ac:	8fa40078 	lw	a0,120(sp)
  4012b0:	8fb20020 	lw	s2,32(sp)
  4012b4:	8fa60080 	lw	a2,128(sp)
  4012b8:	03c02821 	move	a1,s8
  4012bc:	02a03821 	move	a3,s5
  4012c0:	afb1001c 	sw	s1,28(sp)
  4012c4:	afb00010 	sw	s0,16(sp)
  4012c8:	e7ba0014 	swc1	$f26,20(sp)
  4012cc:	0c10079f 	jal	401e7c <normal_exec>
  4012d0:	afb20018 	sw	s2,24(sp)
  4012d4:	8faf009c 	lw	t7,156(sp)
  4012d8:	8de40000 	lw	a0,0(t7)
  4012dc:	14800046 	bnez	a0,4013f8 <cluster_exec+0x1e8>
  4012e0:	00408821 	move	s1,v0
  4012e4:	8fb80098 	lw	t8,152(sp)
  4012e8:	8fb6009c 	lw	s6,156(sp)
  4012ec:	af100000 	sw	s0,0(t8)
  4012f0:	8fb40090 	lw	s4,144(sp)
  4012f4:	26100001 	addiu	s0,s0,1
  4012f8:	0290102a 	slt	v0,s4,s0
  4012fc:	1040ffe7 	beqz	v0,40129c <cluster_exec+0x8c>
  401300:	aed10000 	sw	s1,0(s6)
  401304:	0c1080c0 	jal	420300 <__libc_free>
  401308:	8fa40020 	lw	a0,32(sp)
  40130c:	0c100a62 	jal	402988 <random_free>
  401310:	8fa40024 	lw	a0,36(sp)
  401314:	8fbf0054 	lw	ra,84(sp)
  401318:	8fbe0050 	lw	s8,80(sp)
  40131c:	8fb7004c 	lw	s7,76(sp)
  401320:	8fb60048 	lw	s6,72(sp)
  401324:	8fb50044 	lw	s5,68(sp)
  401328:	8fb40040 	lw	s4,64(sp)
  40132c:	8fb3003c 	lw	s3,60(sp)
  401330:	8fb20038 	lw	s2,56(sp)
  401334:	8fb10034 	lw	s1,52(sp)
  401338:	8fb00030 	lw	s0,48(sp)
  40133c:	d7ba0070 	ldc1	$f26,112(sp)
  401340:	d7b80068 	ldc1	$f24,104(sp)
  401344:	d7b60060 	ldc1	$f22,96(sp)
  401348:	d7b40058 	ldc1	$f20,88(sp)
  40134c:	00001021 	move	v0,zero
  401350:	03e00008 	jr	ra
  401354:	27bd0078 	addiu	sp,sp,120
  401358:	02a02021 	move	a0,s5
  40135c:	0c108253 	jal	42094c <__libc_calloc>
  401360:	24050004 	li	a1,4
  401364:	10400095 	beqz	v0,4015bc <cluster_exec+0x3ac>
  401368:	0040b821 	move	s7,v0
  40136c:	8fac0080 	lw	t4,128(sp)
  401370:	19800072 	blez	t4,40153c <cluster_exec+0x32c>
  401374:	afa00028 	sw	zero,40(sp)
  401378:	0015b02a 	slt	s6,zero,s5
  40137c:	12c0000d 	beqz	s6,4013b4 <cluster_exec+0x1a4>
  401380:	00002821 	move	a1,zero
  401384:	8fad0028 	lw	t5,40(sp)
  401388:	000d3080 	sll	a2,t5,0x2
  40138c:	00059080 	sll	s2,a1,0x2
  401390:	025e9821 	addu	s3,s2,s8
  401394:	8e710000 	lw	s1,0(s3)
  401398:	24a50001 	addiu	a1,a1,1
  40139c:	02577821 	addu	t7,s2,s7
  4013a0:	00d18021 	addu	s0,a2,s1
  4013a4:	c6000000 	lwc1	$f0,0(s0)
  4013a8:	00b5702a 	slt	t6,a1,s5
  4013ac:	15c0fff7 	bnez	t6,40138c <cluster_exec+0x17c>
  4013b0:	e5e00000 	swc1	$f0,0(t7)
  4013b4:	24040002 	li	a0,2
  4013b8:	0c108253 	jal	42094c <__libc_calloc>
  4013bc:	24050004 	li	a1,4
  4013c0:	10400066 	beqz	v0,40155c <cluster_exec+0x34c>
  4013c4:	00409821 	move	s3,v0
  4013c8:	12c00012 	beqz	s6,401414 <cluster_exec+0x204>
  4013cc:	00002021 	move	a0,zero
  4013d0:	c4420000 	lwc1	$f2,0(v0)
  4013d4:	02e01821 	move	v1,s7
  4013d8:	c4640000 	lwc1	$f4,0(v1)
  4013dc:	24840001 	addiu	a0,a0,1
  4013e0:	0095c02a 	slt	t8,a0,s5
  4013e4:	46041080 	add.s	$f2,$f2,$f4
  4013e8:	1700fffb 	bnez	t8,4013d8 <cluster_exec+0x1c8>
  4013ec:	24630004 	addiu	v1,v1,4
  4013f0:	08100506 	j	401418 <cluster_exec+0x208>
  4013f4:	00000000 	nop
  4013f8:	0c1080c0 	jal	420300 <__libc_free>
  4013fc:	8c840000 	lw	a0,0(a0)
  401400:	8fb3009c 	lw	s3,156(sp)
  401404:	0c1080c0 	jal	420300 <__libc_free>
  401408:	8e640000 	lw	a0,0(s3)
  40140c:	081004ba 	j	4012e8 <cluster_exec+0xd8>
  401410:	8fb80098 	lw	t8,152(sp)
  401414:	c4420000 	lwc1	$f2,0(v0)
  401418:	44954000 	mtc1	s5,$f8
  40141c:	24040001 	li	a0,1
  401420:	46804620 	cvt.s.w	$f24,$f8
  401424:	46181183 	div.s	$f6,$f2,$f24
  401428:	e6660000 	swc1	$f6,0(s3)
  40142c:	0004a080 	sll	s4,a0,0x2
  401430:	02931021 	addu	v0,s4,s3
  401434:	24990001 	addiu	t9,a0,1
  401438:	ac400000 	sw	zero,0(v0)
  40143c:	4499b000 	mtc1	t9,$f22
  401440:	12c00012 	beqz	s6,40148c <cluster_exec+0x27c>
  401444:	00008821 	move	s1,zero
  401448:	00409021 	move	s2,v0
  40144c:	02e08021 	move	s0,s7
  401450:	c60c0000 	lwc1	$f12,0(s0)
  401454:	c6620000 	lwc1	$f2,0(s3)
  401458:	c6540000 	lwc1	$f20,0(s2)
  40145c:	4680b3a1 	cvt.d.w	$f14,$f22
  401460:	46026301 	sub.s	$f12,$f12,$f2
  401464:	4600a521 	cvt.d.s	$f20,$f20
  401468:	26310001 	addiu	s1,s1,1
  40146c:	0c100b9c 	jal	402e70 <__pow>
  401470:	46006321 	cvt.d.s	$f12,$f12
  401474:	4620a500 	add.d	$f20,$f20,$f0
  401478:	0235f82a 	slt	ra,s1,s5
  40147c:	26100004 	addiu	s0,s0,4
  401480:	4620a520 	cvt.s.d	$f20,$f20
  401484:	17e0fff2 	bnez	ra,401450 <cluster_exec+0x240>
  401488:	e6540000 	swc1	$f20,0(s2)
  40148c:	02932821 	addu	a1,s4,s3
  401490:	c4ae0000 	lwc1	$f14,0(a1)
  401494:	4404b000 	mfc1	a0,$f22
  401498:	46187283 	div.s	$f10,$f14,$f24
  40149c:	28870002 	slti	a3,a0,2
  4014a0:	14e0ffe2 	bnez	a3,40142c <cluster_exec+0x21c>
  4014a4:	e4aa0000 	swc1	$f10,0(a1)
  4014a8:	c66c0004 	lwc1	$f12,4(s3)
  4014ac:	46006004 	sqrt.s	$f0,$f12
  4014b0:	46000032 	c.eq.s	$f0,$f0
  4014b4:	00000000 	nop
  4014b8:	45000024 	bc1f	40154c <cluster_exec+0x33c>
  4014bc:	00000000 	nop
  4014c0:	8fa20028 	lw	v0,40(sp)
  4014c4:	46000106 	mov.s	$f4,$f0
  4014c8:	e6600004 	swc1	$f0,4(s3)
  4014cc:	00002021 	move	a0,zero
  4014d0:	16c00004 	bnez	s6,4014e4 <cluster_exec+0x2d4>
  4014d4:	00022880 	sll	a1,v0,0x2
  4014d8:	08100546 	j	401518 <cluster_exec+0x308>
  4014dc:	8fae0028 	lw	t6,40(sp)
  4014e0:	c6640004 	lwc1	$f4,4(s3)
  4014e4:	00045080 	sll	t2,a0,0x2
  4014e8:	015e4821 	addu	t1,t2,s8
  4014ec:	8d280000 	lw	t0,0(t1)
  4014f0:	c6780000 	lwc1	$f24,0(s3)
  4014f4:	24840001 	addiu	a0,a0,1
  4014f8:	00a81821 	addu	v1,a1,t0
  4014fc:	c4760000 	lwc1	$f22,0(v1)
  401500:	0095302a 	slt	a2,a0,s5
  401504:	4618b481 	sub.s	$f18,$f22,$f24
  401508:	46049403 	div.s	$f16,$f18,$f4
  40150c:	14c0fff4 	bnez	a2,4014e0 <cluster_exec+0x2d0>
  401510:	e4700000 	swc1	$f16,0(v1)
  401514:	8fae0028 	lw	t6,40(sp)
  401518:	02602021 	move	a0,s3
  40151c:	25cd0001 	addiu	t5,t6,1
  401520:	0c1080c0 	jal	420300 <__libc_free>
  401524:	afad0028 	sw	t5,40(sp)
  401528:	8fa40028 	lw	a0,40(sp)
  40152c:	8fac0080 	lw	t4,128(sp)
  401530:	008c582a 	slt	t3,a0,t4
  401534:	1560ff91 	bnez	t3,40137c <cluster_exec+0x16c>
  401538:	00000000 	nop
  40153c:	0c1080c0 	jal	420300 <__libc_free>
  401540:	02e02021 	move	a0,s7
  401544:	081004a3 	j	40128c <cluster_exec+0x7c>
  401548:	8fb0008c 	lw	s0,140(sp)
  40154c:	0c100c50 	jal	403140 <__sqrtf>
  401550:	00000000 	nop
  401554:	08100531 	j	4014c4 <cluster_exec+0x2b4>
  401558:	8fa20028 	lw	v0,40(sp)
  40155c:	3c160046 	lui	s6,0x46
  401560:	3c150046 	lui	s5,0x46
  401564:	3c140046 	lui	s4,0x46
  401568:	26c46d60 	addiu	a0,s6,28000
  40156c:	26a56d68 	addiu	a1,s5,28008
  401570:	26876d50 	addiu	a3,s4,27984
  401574:	0c102748 	jal	409d20 <__assert_fail>
  401578:	24060072 	li	a2,114
  40157c:	3c060046 	lui	a2,0x46
  401580:	3c030046 	lui	v1,0x46
  401584:	3c020046 	lui	v0,0x46
  401588:	24c46d74 	addiu	a0,a2,28020
  40158c:	24656d68 	addiu	a1,v1,28008
  401590:	24476d30 	addiu	a3,v0,27952
  401594:	0c102748 	jal	409d20 <__assert_fail>
  401598:	240600bf 	li	a2,191
  40159c:	3c040046 	lui	a0,0x46
  4015a0:	3c050046 	lui	a1,0x46
  4015a4:	3c070046 	lui	a3,0x46
  4015a8:	24846d80 	addiu	a0,a0,28032
  4015ac:	24a56d68 	addiu	a1,a1,28008
  4015b0:	24e76d30 	addiu	a3,a3,27952
  4015b4:	0c102748 	jal	409d20 <__assert_fail>
  4015b8:	240600bc 	li	a2,188
  4015bc:	3c0b0046 	lui	t3,0x46
  4015c0:	3c0a0046 	lui	t2,0x46
  4015c4:	3c090046 	lui	t1,0x46
  4015c8:	25646d8c 	addiu	a0,t3,28044
  4015cc:	25456d68 	addiu	a1,t2,28008
  4015d0:	25276d40 	addiu	a3,t1,27968
  4015d4:	0c102748 	jal	409d20 <__assert_fail>
  4015d8:	24060092 	li	a2,146
  4015dc:	00000000 	nop

004015e0 <common_euclidDist2>:
  4015e0:	44802000 	mtc1	zero,$f4
  4015e4:	18c0000c 	blez	a2,401618 <common_euclidDist2+0x38>
  4015e8:	00003821 	move	a3,zero
  4015ec:	00074880 	sll	t1,a3,0x2
  4015f0:	01251821 	addu	v1,t1,a1
  4015f4:	01244021 	addu	t0,t1,a0
  4015f8:	c5080000 	lwc1	$f8,0(t0)
  4015fc:	c4620000 	lwc1	$f2,0(v1)
  401600:	24e70001 	addiu	a3,a3,1
  401604:	00e6102a 	slt	v0,a3,a2
  401608:	46024181 	sub.s	$f6,$f8,$f2
  40160c:	46063002 	mul.s	$f0,$f6,$f6
  401610:	1440fff6 	bnez	v0,4015ec <common_euclidDist2+0xc>
  401614:	46002100 	add.s	$f4,$f4,$f0
  401618:	03e00008 	jr	ra
  40161c:	46002006 	mov.s	$f0,$f4

00401620 <common_findNearestPoint>:
  401620:	3c020046 	lui	v0,0x46
  401624:	c4466d9c 	lwc1	$f6,28060(v0)
  401628:	240cffff 	li	t4,-1
  40162c:	18e00021 	blez	a3,4016b4 <common_findNearestPoint+0x94>
  401630:	00005021 	move	t2,zero
  401634:	3c030046 	lui	v1,0x46
  401638:	c4686da0 	lwc1	$f8,28064(v1)
  40163c:	44805000 	mtc1	zero,$f10
  401640:	0005582a 	slt	t3,zero,a1
  401644:	8cc90000 	lw	t1,0(a2)
  401648:	44802000 	mtc1	zero,$f4
  40164c:	1160000c 	beqz	t3,401680 <common_findNearestPoint+0x60>
  401650:	00004021 	move	t0,zero
  401654:	0008c080 	sll	t8,t0,0x2
  401658:	03097021 	addu	t6,t8,t1
  40165c:	03047821 	addu	t7,t8,a0
  401660:	c5ee0000 	lwc1	$f14,0(t7)
  401664:	c5c20000 	lwc1	$f2,0(t6)
  401668:	25080001 	addiu	t0,t0,1
  40166c:	0105682a 	slt	t5,t0,a1
  401670:	46027301 	sub.s	$f12,$f14,$f2
  401674:	460c6002 	mul.s	$f0,$f12,$f12
  401678:	15a0fff6 	bnez	t5,401654 <common_findNearestPoint+0x34>
  40167c:	46002100 	add.s	$f4,$f4,$f0
  401680:	46062403 	div.s	$f16,$f4,$f6
  401684:	4608803c 	c.lt.s	$f16,$f8
  401688:	00000000 	nop
  40168c:	45020006 	bc1fl	4016a8 <common_findNearestPoint+0x88>
  401690:	254a0001 	addiu	t2,t2,1
  401694:	460a2032 	c.eq.s	$f4,$f10
  401698:	46002186 	mov.s	$f6,$f4
  40169c:	45010005 	bc1t	4016b4 <common_findNearestPoint+0x94>
  4016a0:	01406021 	move	t4,t2
  4016a4:	254a0001 	addiu	t2,t2,1
  4016a8:	0147402a 	slt	t0,t2,a3
  4016ac:	1500ffe5 	bnez	t0,401644 <common_findNearestPoint+0x24>
  4016b0:	24c60004 	addiu	a2,a2,4
  4016b4:	03e00008 	jr	ra
  4016b8:	01801021 	move	v0,t4
  4016bc:	00000000 	nop

004016c0 <usage>:
  4016c0:	27bdffe8 	addiu	sp,sp,-24
  4016c4:	afbf0010 	sw	ra,16(sp)
  4016c8:	3c020049 	lui	v0,0x49
  4016cc:	00803021 	move	a2,a0
  4016d0:	8c44b190 	lw	a0,-20080(v0)
  4016d4:	3c050046 	lui	a1,0x46
  4016d8:	0c105558 	jal	415560 <fprintf>
  4016dc:	24a56da4 	addiu	a1,a1,28068
  4016e0:	0c103b8c 	jal	40ee30 <exit>
  4016e4:	2404ffff 	li	a0,-1

004016e8 <main>:
  4016e8:	27bdff70 	addiu	sp,sp,-144
  4016ec:	3c060046 	lui	a2,0x46
  4016f0:	afbf0084 	sw	ra,132(sp)
  4016f4:	afb50074 	sw	s5,116(sp)
  4016f8:	afb40070 	sw	s4,112(sp)
  4016fc:	afb20068 	sw	s2,104(sp)
  401700:	afb10064 	sw	s1,100(sp)
  401704:	afb00060 	sw	s0,96(sp)
  401708:	f7b40088 	sdc1	$f20,136(sp)
  40170c:	00809021 	move	s2,a0
  401710:	00a08821 	move	s1,a1
  401714:	c4d47100 	lwc1	$f20,28928(a2)
  401718:	afbe0080 	sw	s8,128(sp)
  40171c:	afb7007c 	sw	s7,124(sp)
  401720:	afb60078 	sw	s6,120(sp)
  401724:	afb3006c 	sw	s3,108(sp)
  401728:	0c100230 	jal	4008c0 <sesc_init>
  40172c:	afa00034 	sw	zero,52(sp)
  401730:	3c05000f 	lui	a1,0xf
  401734:	0c107eec 	jal	41fbb0 <__libc_malloc>
  401738:	34a44240 	ori	a0,a1,0x4240
  40173c:	0040a821 	move	s5,v0
  401740:	24040001 	li	a0,1
  401744:	2402000d 	li	v0,13
  401748:	24030004 	li	v1,4
  40174c:	afa20038 	sw	v0,56(sp)
  401750:	afa3003c 	sw	v1,60(sp)
  401754:	0000a021 	move	s4,zero
  401758:	afa40048 	sw	a0,72(sp)
  40175c:	afa4004c 	sw	a0,76(sp)
  401760:	3c100046 	lui	s0,0x46
  401764:	02402021 	move	a0,s2
  401768:	02202821 	move	a1,s1
  40176c:	0c10955c 	jal	425570 <getopt>
  401770:	26066f38 	addiu	a2,s0,28472
  401774:	2417ffff 	li	s7,-1
  401778:	1057001b 	beq	v0,s7,4017e8 <main+0x100>
  40177c:	00401821 	move	v1,v0
  401780:	2463ffc1 	addiu	v1,v1,-63
  401784:	2c67003c 	sltiu	a3,v1,60
  401788:	10e00007 	beqz	a3,4017a8 <main+0xc0>
  40178c:	3c0c0046 	lui	t4,0x46
  401790:	00035080 	sll	t2,v1,0x2
  401794:	258b7008 	addiu	t3,t4,28680
  401798:	014b4821 	addu	t1,t2,t3
  40179c:	8d280000 	lw	t0,0(t1)
  4017a0:	01000008 	jr	t0
  4017a4:	00000000 	nop
  4017a8:	3c100049 	lui	s0,0x49
  4017ac:	8e04b190 	lw	a0,-20080(s0)
  4017b0:	8e260000 	lw	a2,0(s1)
  4017b4:	3c110046 	lui	s1,0x46
  4017b8:	0c105558 	jal	415560 <fprintf>
  4017bc:	26256da4 	addiu	a1,s1,28068
  4017c0:	0c103b8c 	jal	40ee30 <exit>
  4017c4:	2404ffff 	li	a0,-1
  4017c8:	02402021 	move	a0,s2
  4017cc:	02202821 	move	a1,s1
  4017d0:	26066f38 	addiu	a2,s0,28472
  4017d4:	afa00048 	sw	zero,72(sp)
  4017d8:	0c10955c 	jal	425570 <getopt>
  4017dc:	2417ffff 	li	s7,-1
  4017e0:	1457ffe7 	bne	v0,s7,401780 <main+0x98>
  4017e4:	00401821 	move	v1,v0
  4017e8:	1280ffef 	beqz	s4,4017a8 <main+0xc0>
  4017ec:	8fb90038 	lw	t9,56(sp)
  4017f0:	8fb8003c 	lw	t8,60(sp)
  4017f4:	0338902a 	slt	s2,t9,t8
  4017f8:	1640011b 	bnez	s2,401c68 <main+0x580>
  4017fc:	0000b021 	move	s6,zero
  401800:	0000b821 	move	s7,zero
  401804:	02802021 	move	a0,s4
  401808:	3c1e0048 	lui	s8,0x48
  40180c:	0c1056de 	jal	415b78 <_IO_new_fopen>
  401810:	27c55e44 	addiu	a1,s8,24132
  401814:	00409821 	move	s3,v0
  401818:	3c10000f 	lui	s0,0xf
  40181c:	14400007 	bnez	v0,40183c <main+0x154>
  401820:	3c110046 	lui	s1,0x46
  401824:	08100713 	j	401c4c <main+0x564>
  401828:	3c030049 	lui	v1,0x49
  40182c:	0c1086e0 	jal	421b80 <strtok>
  401830:	26256f48 	addiu	a1,s1,28488
  401834:	0002202b 	sltu	a0,zero,v0
  401838:	02e4b821 	addu	s7,s7,a0
  40183c:	02a02021 	move	a0,s5
  401840:	36054240 	ori	a1,s0,0x4240
  401844:	0c105624 	jal	415890 <_IO_fgets>
  401848:	02603021 	move	a2,s3
  40184c:	1440fff7 	bnez	v0,40182c <main+0x144>
  401850:	02a02021 	move	a0,s5
  401854:	0c105db0 	jal	4176c0 <rewind>
  401858:	02602021 	move	a0,s3
  40185c:	3c11000f 	lui	s1,0xf
  401860:	3c100046 	lui	s0,0x46
  401864:	02a02021 	move	a0,s5
  401868:	36254240 	ori	a1,s1,0x4240
  40186c:	0c105624 	jal	415890 <_IO_fgets>
  401870:	02603021 	move	a2,s3
  401874:	1040000b 	beqz	v0,4018a4 <main+0x1bc>
  401878:	02a02021 	move	a0,s5
  40187c:	0c1086e0 	jal	421b80 <strtok>
  401880:	26056f48 	addiu	a1,s0,28488
  401884:	1040fff8 	beqz	v0,401868 <main+0x180>
  401888:	02a02021 	move	a0,s5
  40188c:	3c100046 	lui	s0,0x46
  401890:	00002021 	move	a0,zero
  401894:	0c1086e0 	jal	421b80 <strtok>
  401898:	26056f4c 	addiu	a1,s0,28492
  40189c:	5440fffc 	bnezl	v0,401890 <main+0x1a8>
  4018a0:	26d60001 	addiu	s6,s6,1
  4018a4:	02f60018 	mult	s7,s6
  4018a8:	00001012 	mflo	v0
  4018ac:	00028080 	sll	s0,v0,0x2
  4018b0:	02002021 	move	a0,s0
  4018b4:	0c107eec 	jal	41fbb0 <__libc_malloc>
  4018b8:	afa20050 	sw	v0,80(sp)
  4018bc:	104000db 	beqz	v0,401c2c <main+0x544>
  4018c0:	afa20040 	sw	v0,64(sp)
  4018c4:	00174080 	sll	t0,s7,0x2
  4018c8:	01002021 	move	a0,t0
  4018cc:	0c107eec 	jal	41fbb0 <__libc_malloc>
  4018d0:	afa80054 	sw	t0,84(sp)
  4018d4:	104000cd 	beqz	v0,401c0c <main+0x524>
  4018d8:	afa20044 	sw	v0,68(sp)
  4018dc:	0c107eec 	jal	41fbb0 <__libc_malloc>
  4018e0:	02002021 	move	a0,s0
  4018e4:	8fac0044 	lw	t4,68(sp)
  4018e8:	104000c0 	beqz	v0,401bec <main+0x504>
  4018ec:	ad820000 	sw	v0,0(t4)
  4018f0:	24120001 	li	s2,1
  4018f4:	0257802a 	slt	s0,s2,s7
  4018f8:	1200000a 	beqz	s0,401924 <main+0x23c>
  4018fc:	8fb80044 	lw	t8,68(sp)
  401900:	00162880 	sll	a1,s6,0x2
  401904:	26e4ffff 	addiu	a0,s7,-1
  401908:	27030004 	addiu	v1,t8,4
  40190c:	8c74fffc 	lw	s4,-4(v1)
  401910:	2484ffff 	addiu	a0,a0,-1
  401914:	0285c821 	addu	t9,s4,a1
  401918:	ac790000 	sw	t9,0(v1)
  40191c:	1480fffb 	bnez	a0,40190c <main+0x224>
  401920:	24630004 	addiu	v1,v1,4
  401924:	02602021 	move	a0,s3
  401928:	0c105db0 	jal	4176c0 <rewind>
  40192c:	0016882a 	slt	s1,zero,s6
  401930:	00009021 	move	s2,zero
  401934:	3c1e000f 	lui	s8,0xf
  401938:	afb10058 	sw	s1,88(sp)
  40193c:	02a02021 	move	a0,s5
  401940:	37c54240 	ori	a1,s8,0x4240
  401944:	0c105624 	jal	415890 <_IO_fgets>
  401948:	02603021 	move	a2,s3
  40194c:	1040003e 	beqz	v0,401a48 <main+0x360>
  401950:	3c1f0046 	lui	ra,0x46
  401954:	27e56f48 	addiu	a1,ra,28488
  401958:	0c1086e0 	jal	421b80 <strtok>
  40195c:	02a02021 	move	a0,s5
  401960:	1040fff7 	beqz	v0,401940 <main+0x258>
  401964:	02a02021 	move	a0,s5
  401968:	8fa30058 	lw	v1,88(sp)
  40196c:	1060fff3 	beqz	v1,40193c <main+0x254>
  401970:	8fa40040 	lw	a0,64(sp)
  401974:	00121080 	sll	v0,s2,0x2
  401978:	3c140046 	lui	s4,0x46
  40197c:	00448821 	addu	s1,v0,a0
  401980:	02c08021 	move	s0,s6
  401984:	00002021 	move	a0,zero
  401988:	0c1086e0 	jal	421b80 <strtok>
  40198c:	26856f4c 	addiu	a1,s4,28492
  401990:	00402021 	move	a0,v0
  401994:	00002821 	move	a1,zero
  401998:	0c1042be 	jal	410af8 <__strtod_internal>
  40199c:	00003021 	move	a2,zero
  4019a0:	46200020 	cvt.s.d	$f0,$f0
  4019a4:	2610ffff 	addiu	s0,s0,-1
  4019a8:	e6200000 	swc1	$f0,0(s1)
  4019ac:	26520001 	addiu	s2,s2,1
  4019b0:	1600fff4 	bnez	s0,401984 <main+0x29c>
  4019b4:	26310004 	addiu	s1,s1,4
  4019b8:	08100650 	j	401940 <main+0x258>
  4019bc:	02a02021 	move	a0,s5
  4019c0:	3c0e1000 	lui	t6,0x1000
  4019c4:	8dc401c4 	lw	a0,452(t6)
  4019c8:	00002821 	move	a1,zero
  4019cc:	0c1042be 	jal	410af8 <__strtod_internal>
  4019d0:	00003021 	move	a2,zero
  4019d4:	081005d9 	j	401764 <main+0x7c>
  4019d8:	46200520 	cvt.s.d	$f20,$f0
  4019dc:	3c161000 	lui	s6,0x1000
  4019e0:	8ec401c4 	lw	a0,452(s6)
  4019e4:	00002821 	move	a1,zero
  4019e8:	2406000a 	li	a2,10
  4019ec:	0c103c44 	jal	40f110 <__strtol_internal>
  4019f0:	00003821 	move	a3,zero
  4019f4:	081005d9 	j	401764 <main+0x7c>
  4019f8:	afa2004c 	sw	v0,76(sp)
  4019fc:	3c131000 	lui	s3,0x1000
  401a00:	8e6401c4 	lw	a0,452(s3)
  401a04:	00002821 	move	a1,zero
  401a08:	2406000a 	li	a2,10
  401a0c:	0c103c44 	jal	40f110 <__strtol_internal>
  401a10:	00003821 	move	a3,zero
  401a14:	081005d9 	j	401764 <main+0x7c>
  401a18:	afa2003c 	sw	v0,60(sp)
  401a1c:	3c0f1000 	lui	t7,0x1000
  401a20:	8de401c4 	lw	a0,452(t7)
  401a24:	00002821 	move	a1,zero
  401a28:	2406000a 	li	a2,10
  401a2c:	0c103c44 	jal	40f110 <__strtol_internal>
  401a30:	00003821 	move	a3,zero
  401a34:	081005d9 	j	401764 <main+0x7c>
  401a38:	afa20038 	sw	v0,56(sp)
  401a3c:	3c0d1000 	lui	t5,0x1000
  401a40:	081005d9 	j	401764 <main+0x7c>
  401a44:	8db401c4 	lw	s4,452(t5)
  401a48:	0c105580 	jal	415600 <_IO_new_fclose>
  401a4c:	02602021 	move	a0,s3
  401a50:	0c107eec 	jal	41fbb0 <__libc_malloc>
  401a54:	8fa40054 	lw	a0,84(sp)
  401a58:	1040005c 	beqz	v0,401bcc <main+0x4e4>
  401a5c:	0040f021 	move	s8,v0
  401a60:	8fa60044 	lw	a2,68(sp)
  401a64:	8fa50050 	lw	a1,80(sp)
  401a68:	00009821 	move	s3,zero
  401a6c:	8cc40000 	lw	a0,0(a2)
  401a70:	00053080 	sll	a2,a1,0x2
  401a74:	0c1089a4 	jal	422690 <memcpy>
  401a78:	8fa50040 	lw	a1,64(sp)
  401a7c:	8fac0048 	lw	t4,72(sp)
  401a80:	8fab003c 	lw	t3,60(sp)
  401a84:	8faa0038 	lw	t2,56(sp)
  401a88:	8fa4004c 	lw	a0,76(sp)
  401a8c:	8fa70044 	lw	a3,68(sp)
  401a90:	27a90030 	addiu	t1,sp,48
  401a94:	27a80034 	addiu	t0,sp,52
  401a98:	02e02821 	move	a1,s7
  401a9c:	02c03021 	move	a2,s6
  401aa0:	afac0010 	sw	t4,16(sp)
  401aa4:	afab0014 	sw	t3,20(sp)
  401aa8:	afaa0018 	sw	t2,24(sp)
  401aac:	e7b4001c 	swc1	$f20,28(sp)
  401ab0:	afa90020 	sw	t1,32(sp)
  401ab4:	afa80024 	sw	t0,36(sp)
  401ab8:	afa00034 	sw	zero,52(sp)
  401abc:	0c100484 	jal	401210 <cluster_exec>
  401ac0:	afbe0028 	sw	s8,40(sp)
  401ac4:	8fb50030 	lw	s5,48(sp)
  401ac8:	1aa0001f 	blez	s5,401b48 <main+0x460>
  401acc:	0016a02a 	slt	s4,zero,s6
  401ad0:	3c150048 	lui	s5,0x48
  401ad4:	26a45028 	addiu	a0,s5,20520
  401ad8:	0c105564 	jal	415590 <_IO_printf>
  401adc:	02602821 	move	a1,s3
  401ae0:	12800012 	beqz	s4,401b2c <main+0x444>
  401ae4:	00008021 	move	s0,zero
  401ae8:	00138880 	sll	s1,s3,0x2
  401aec:	3c120046 	lui	s2,0x46
  401af0:	8fb90034 	lw	t9,52(sp)
  401af4:	00107080 	sll	t6,s0,0x2
  401af8:	26446f54 	addiu	a0,s2,28500
  401afc:	0239c021 	addu	t8,s1,t9
  401b00:	8f0f0000 	lw	t7,0(t8)
  401b04:	01cf6821 	addu	t5,t6,t7
  401b08:	c5a40000 	lwc1	$f4,0(t5)
  401b0c:	460020a1 	cvt.d.s	$f2,$f4
  401b10:	44071000 	mfc1	a3,$f2
  401b14:	44061800 	mfc1	a2,$f3
  401b18:	0c105564 	jal	415590 <_IO_printf>
  401b1c:	26100001 	addiu	s0,s0,1
  401b20:	0216382a 	slt	a3,s0,s6
  401b24:	14e0fff3 	bnez	a3,401af4 <main+0x40c>
  401b28:	8fb90034 	lw	t9,52(sp)
  401b2c:	0c105810 	jal	416040 <putchar>
  401b30:	2404000a 	li	a0,10
  401b34:	8fb20030 	lw	s2,48(sp)
  401b38:	26730001 	addiu	s3,s3,1
  401b3c:	0272802a 	slt	s0,s3,s2
  401b40:	1600ffe5 	bnez	s0,401ad8 <main+0x3f0>
  401b44:	26a45028 	addiu	a0,s5,20520
  401b48:	3c111000 	lui	s1,0x1000
  401b4c:	8e2706b4 	lw	a3,1716(s1)
  401b50:	8e2606b0 	lw	a2,1712(s1)
  401b54:	3c140046 	lui	s4,0x46
  401b58:	0c105564 	jal	415590 <_IO_printf>
  401b5c:	26846f58 	addiu	a0,s4,28504
  401b60:	0c1080c0 	jal	420300 <__libc_free>
  401b64:	03c02021 	move	a0,s8
  401b68:	0c1080c0 	jal	420300 <__libc_free>
  401b6c:	8fa40044 	lw	a0,68(sp)
  401b70:	8fbe0034 	lw	s8,52(sp)
  401b74:	0c1080c0 	jal	420300 <__libc_free>
  401b78:	8fc40000 	lw	a0,0(s8)
  401b7c:	0c1080c0 	jal	420300 <__libc_free>
  401b80:	8fa40034 	lw	a0,52(sp)
  401b84:	0c1080c0 	jal	420300 <__libc_free>
  401b88:	8fa40040 	lw	a0,64(sp)
  401b8c:	0c100b88 	jal	402e20 <thread_shutdown>
  401b90:	00000000 	nop
  401b94:	8fbf0084 	lw	ra,132(sp)
  401b98:	8fbe0080 	lw	s8,128(sp)
  401b9c:	8fb7007c 	lw	s7,124(sp)
  401ba0:	8fb60078 	lw	s6,120(sp)
  401ba4:	8fb50074 	lw	s5,116(sp)
  401ba8:	8fb40070 	lw	s4,112(sp)
  401bac:	8fb3006c 	lw	s3,108(sp)
  401bb0:	8fb20068 	lw	s2,104(sp)
  401bb4:	8fb10064 	lw	s1,100(sp)
  401bb8:	8fb00060 	lw	s0,96(sp)
  401bbc:	d7b40088 	ldc1	$f20,136(sp)
  401bc0:	00001021 	move	v0,zero
  401bc4:	03e00008 	jr	ra
  401bc8:	27bd0090 	addiu	sp,sp,144
  401bcc:	3c170046 	lui	s7,0x46
  401bd0:	3c160046 	lui	s6,0x46
  401bd4:	3c130046 	lui	s3,0x46
  401bd8:	26e46f6c 	addiu	a0,s7,28524
  401bdc:	26c56f7c 	addiu	a1,s6,28540
  401be0:	26677000 	addiu	a3,s3,28672
  401be4:	0c102748 	jal	409d20 <__assert_fail>
  401be8:	24060119 	li	a2,281
  401bec:	3c0f0046 	lui	t7,0x46
  401bf0:	3c0e0046 	lui	t6,0x46
  401bf4:	3c0d0046 	lui	t5,0x46
  401bf8:	25e46f88 	addiu	a0,t7,28552
  401bfc:	25c56f7c 	addiu	a1,t6,28540
  401c00:	25a77000 	addiu	a3,t5,28672
  401c04:	0c102748 	jal	409d20 <__assert_fail>
  401c08:	24060100 	li	a2,256
  401c0c:	3c0b0046 	lui	t3,0x46
  401c10:	3c0a0046 	lui	t2,0x46
  401c14:	3c090046 	lui	t1,0x46
  401c18:	25646f98 	addiu	a0,t3,28568
  401c1c:	25456f7c 	addiu	a1,t2,28540
  401c20:	25277000 	addiu	a3,t1,28672
  401c24:	0c102748 	jal	409d20 <__assert_fail>
  401c28:	240600fe 	li	a2,254
  401c2c:	3c070046 	lui	a3,0x46
  401c30:	3c060046 	lui	a2,0x46
  401c34:	3c050046 	lui	a1,0x46
  401c38:	24e46fa4 	addiu	a0,a3,28580
  401c3c:	24a56f7c 	addiu	a1,a1,28540
  401c40:	24c77000 	addiu	a3,a2,28672
  401c44:	0c102748 	jal	409d20 <__assert_fail>
  401c48:	240600fc 	li	a2,252
  401c4c:	8c64b190 	lw	a0,-20080(v1)
  401c50:	3c1f0046 	lui	ra,0x46
  401c54:	27e56fa8 	addiu	a1,ra,28584
  401c58:	0c105558 	jal	415560 <fprintf>
  401c5c:	02803021 	move	a2,s4
  401c60:	0c103b8c 	jal	40ee30 <exit>
  401c64:	24040001 	li	a0,1
  401c68:	3c140049 	lui	s4,0x49
  401c6c:	8e87b190 	lw	a3,-20080(s4)
  401c70:	3c150046 	lui	s5,0x46
  401c74:	26a46fc4 	addiu	a0,s5,28612
  401c78:	24050001 	li	a1,1
  401c7c:	0c105738 	jal	415ce0 <_IO_fwrite>
  401c80:	2406002c 	li	a2,44
  401c84:	081005ec 	j	4017b0 <main+0xc8>
  401c88:	8e84b190 	lw	a0,-20080(s4)
  401c8c:	00000000 	nop

00401c90 <work>:
  401c90:	27bdff98 	addiu	sp,sp,-104
  401c94:	f7b40050 	sdc1	$f20,80(sp)
  401c98:	afbf004c 	sw	ra,76(sp)
  401c9c:	afbe0048 	sw	s8,72(sp)
  401ca0:	afb70044 	sw	s7,68(sp)
  401ca4:	afb60040 	sw	s6,64(sp)
  401ca8:	afb5003c 	sw	s5,60(sp)
  401cac:	afb40038 	sw	s4,56(sp)
  401cb0:	afb30034 	sw	s3,52(sp)
  401cb4:	afb20030 	sw	s2,48(sp)
  401cb8:	afb1002c 	sw	s1,44(sp)
  401cbc:	afb00028 	sw	s0,40(sp)
  401cc0:	f7b80060 	sdc1	$f24,96(sp)
  401cc4:	f7b60058 	sdc1	$f22,88(sp)
  401cc8:	8c88001c 	lw	t0,28(a0)
  401ccc:	8c960008 	lw	s6,8(a0)
  401cd0:	8c870000 	lw	a3,0(a0)
  401cd4:	8c86000c 	lw	a2,12(a0)
  401cd8:	8c850010 	lw	a1,16(a0)
  401cdc:	8c920004 	lw	s2,4(a0)
  401ce0:	8c9e0014 	lw	s8,20(a0)
  401ce4:	8c840018 	lw	a0,24(a0)
  401ce8:	afa80020 	sw	t0,32(sp)
  401cec:	afa70010 	sw	a3,16(sp)
  401cf0:	afa60014 	sw	a2,20(sp)
  401cf4:	afa50018 	sw	a1,24(sp)
  401cf8:	0c100b92 	jal	402e48 <thread_getId>
  401cfc:	afa4001c 	sw	a0,28(sp)
  401d00:	00021840 	sll	v1,v0,0x1
  401d04:	00621821 	addu	v1,v1,v0
  401d08:	0076102a 	slt	v0,v1,s6
  401d0c:	4480a000 	mtc1	zero,$f20
  401d10:	10400045 	beqz	v0,401e28 <work+0x198>
  401d14:	24750003 	addiu	s5,v1,3
  401d18:	3c090046 	lui	t1,0x46
  401d1c:	c5387104 	lwc1	$f24,28932(t1)
  401d20:	0012b82a 	slt	s7,zero,s2
  401d24:	02d5502a 	slt	t2,s6,s5
  401d28:	11400002 	beqz	t2,401d34 <work+0xa4>
  401d2c:	02a0a021 	move	s4,s5
  401d30:	02c0a021 	move	s4,s6
  401d34:	0074582a 	slt	t3,v1,s4
  401d38:	1160002f 	beqz	t3,401df8 <work+0x168>
  401d3c:	00609821 	move	s3,v1
  401d40:	8fae0018 	lw	t6,24(sp)
  401d44:	8fac0010 	lw	t4,16(sp)
  401d48:	00036880 	sll	t5,v1,0x2
  401d4c:	01ae8021 	addu	s0,t5,t6
  401d50:	4600c586 	mov.s	$f22,$f24
  401d54:	01ac8821 	addu	s1,t5,t4
  401d58:	8e240000 	lw	a0,0(s1)
  401d5c:	8fa70014 	lw	a3,20(sp)
  401d60:	02402821 	move	a1,s2
  401d64:	0c100588 	jal	401620 <common_findNearestPoint>
  401d68:	03c03021 	move	a2,s8
  401d6c:	8e0f0000 	lw	t7,0(s0)
  401d70:	11e20002 	beq	t7,v0,401d7c <work+0xec>
  401d74:	00401821 	move	v1,v0
  401d78:	4616a500 	add.s	$f20,$f20,$f22
  401d7c:	ae030000 	sw	v1,0(s0)
  401d80:	70000000 	0x70000000
  401d84:	00032880 	sll	a1,v1,0x2
  401d88:	8fa3001c 	lw	v1,28(sp)
  401d8c:	00002021 	move	a0,zero
  401d90:	00a31021 	addu	v0,a1,v1
  401d94:	8c580000 	lw	t8,0(v0)
  401d98:	8f1f0000 	lw	ra,0(t8)
  401d9c:	27f90001 	addiu	t9,ra,1
  401da0:	12e0000f 	beqz	s7,401de0 <work+0x150>
  401da4:	af190000 	sw	t9,0(t8)
  401da8:	8fa60020 	lw	a2,32(sp)
  401dac:	00a63821 	addu	a3,a1,a2
  401db0:	8ce60000 	lw	a2,0(a3)
  401db4:	8e250000 	lw	a1,0(s1)
  401db8:	00045880 	sll	t3,a0,0x2
  401dbc:	01664821 	addu	t1,t3,a2
  401dc0:	01655021 	addu	t2,t3,a1
  401dc4:	c5420000 	lwc1	$f2,0(t2)
  401dc8:	c5240000 	lwc1	$f4,0(t1)
  401dcc:	24840001 	addiu	a0,a0,1
  401dd0:	0092402a 	slt	t0,a0,s2
  401dd4:	46022000 	add.s	$f0,$f4,$f2
  401dd8:	1500fff7 	bnez	t0,401db8 <work+0x128>
  401ddc:	e5200000 	swc1	$f0,0(t1)
  401de0:	7c000000 	0x7c000000
  401de4:	26730001 	addiu	s3,s3,1
  401de8:	0274202a 	slt	a0,s3,s4
  401dec:	26100004 	addiu	s0,s0,4
  401df0:	1480ffd9 	bnez	a0,401d58 <work+0xc8>
  401df4:	26310004 	addiu	s1,s1,4
  401df8:	02b6802a 	slt	s0,s5,s6
  401dfc:	1200000a 	beqz	s0,401e28 <work+0x198>
  401e00:	00000000 	nop
  401e04:	70000001 	0x70000001
  401e08:	3c131000 	lui	s3,0x1000
  401e0c:	8e6301b4 	lw	v1,436(s3)
  401e10:	24750003 	addiu	s5,v1,3
  401e14:	ae7501b4 	sw	s5,436(s3)
  401e18:	7c000001 	0x7c000001
  401e1c:	0076882a 	slt	s1,v1,s6
  401e20:	1620ffc1 	bnez	s1,401d28 <work+0x98>
  401e24:	02d5502a 	slt	t2,s6,s5
  401e28:	70000002 	0x70000002
  401e2c:	3c121000 	lui	s2,0x1000
  401e30:	c64801b0 	lwc1	$f8,432(s2)
  401e34:	46144180 	add.s	$f6,$f8,$f20
  401e38:	e64601b0 	swc1	$f6,432(s2)
  401e3c:	7c000002 	0x7c000002
  401e40:	8fbf004c 	lw	ra,76(sp)
  401e44:	8fbe0048 	lw	s8,72(sp)
  401e48:	8fb70044 	lw	s7,68(sp)
  401e4c:	8fb60040 	lw	s6,64(sp)
  401e50:	8fb5003c 	lw	s5,60(sp)
  401e54:	8fb40038 	lw	s4,56(sp)
  401e58:	8fb30034 	lw	s3,52(sp)
  401e5c:	8fb20030 	lw	s2,48(sp)
  401e60:	8fb1002c 	lw	s1,44(sp)
  401e64:	8fb00028 	lw	s0,40(sp)
  401e68:	d7b80060 	ldc1	$f24,96(sp)
  401e6c:	d7b60058 	ldc1	$f22,88(sp)
  401e70:	d7b40050 	ldc1	$f20,80(sp)
  401e74:	03e00008 	jr	ra
  401e78:	27bd0068 	addiu	sp,sp,104

00401e7c <normal_exec>:
  401e7c:	27bdff70 	addiu	sp,sp,-144
  401e80:	afb60070 	sw	s6,112(sp)
  401e84:	8fb600a0 	lw	s6,160(sp)
  401e88:	afa40090 	sw	a0,144(sp)
  401e8c:	afbe0078 	sw	s8,120(sp)
  401e90:	00161080 	sll	v0,s6,0x2
  401e94:	00402021 	move	a0,v0
  401e98:	afb70074 	sw	s7,116(sp)
  401e9c:	afb5006c 	sw	s5,108(sp)
  401ea0:	afb30064 	sw	s3,100(sp)
  401ea4:	f7b60088 	sdc1	$f22,136(sp)
  401ea8:	afbf007c 	sw	ra,124(sp)
  401eac:	afb40068 	sw	s4,104(sp)
  401eb0:	afb20060 	sw	s2,96(sp)
  401eb4:	afb1005c 	sw	s1,92(sp)
  401eb8:	afb00058 	sw	s0,88(sp)
  401ebc:	f7b40080 	sdc1	$f20,128(sp)
  401ec0:	afa50094 	sw	a1,148(sp)
  401ec4:	afa2004c 	sw	v0,76(sp)
  401ec8:	00c09821 	move	s3,a2
  401ecc:	00e0f021 	move	s8,a3
  401ed0:	c7b600a4 	lwc1	$f22,164(sp)
  401ed4:	0c107eec 	jal	41fbb0 <__libc_malloc>
  401ed8:	8fb700ac 	lw	s7,172(sp)
  401edc:	0040a821 	move	s5,v0
  401ee0:	10400117 	beqz	v0,402340 <normal_exec+0x4c4>
  401ee4:	afa00040 	sw	zero,64(sp)
  401ee8:	02d30018 	mult	s6,s3
  401eec:	00001812 	mflo	v1
  401ef0:	0c107eec 	jal	41fbb0 <__libc_malloc>
  401ef4:	00032080 	sll	a0,v1,0x2
  401ef8:	10400109 	beqz	v0,402320 <normal_exec+0x4a4>
  401efc:	aea20000 	sw	v0,0(s5)
  401f00:	24050001 	li	a1,1
  401f04:	00b6502a 	slt	t2,a1,s6
  401f08:	11400009 	beqz	t2,401f30 <normal_exec+0xb4>
  401f0c:	00139080 	sll	s2,s3,0x2
  401f10:	26a40004 	addiu	a0,s5,4
  401f14:	8c8dfffc 	lw	t5,-4(a0)
  401f18:	24a50001 	addiu	a1,a1,1
  401f1c:	00b6582a 	slt	t3,a1,s6
  401f20:	01b26021 	addu	t4,t5,s2
  401f24:	ac8c0000 	sw	t4,0(a0)
  401f28:	1560fffa 	bnez	t3,401f14 <normal_exec+0x98>
  401f2c:	24840004 	addiu	a0,a0,4
  401f30:	0016702a 	slt	t6,zero,s6
  401f34:	11c0001d 	beqz	t6,401fac <normal_exec+0x130>
  401f38:	afae0050 	sw	t6,80(sp)
  401f3c:	0013a02a 	slt	s4,zero,s3
  401f40:	02a08821 	move	s1,s5
  401f44:	02c08021 	move	s0,s6
  401f48:	0c100a6a 	jal	4029a8 <random_generate>
  401f4c:	02e02021 	move	a0,s7
  401f50:	005e001b 	divu	zero,v0,s8
  401f54:	17c00002 	bnez	s8,401f60 <normal_exec+0xe4>
  401f58:	00000000 	nop
  401f5c:	0007000d 	break	0x7
  401f60:	1280000f 	beqz	s4,401fa0 <normal_exec+0x124>
  401f64:	00002021 	move	a0,zero
  401f68:	8fb90094 	lw	t9,148(sp)
  401f6c:	0000f810 	mfhi	ra
  401f70:	001fc080 	sll	t8,ra,0x2
  401f74:	03197821 	addu	t7,t8,t9
  401f78:	8de60000 	lw	a2,0(t7)
  401f7c:	8e250000 	lw	a1,0(s1)
  401f80:	00041880 	sll	v1,a0,0x2
  401f84:	00664021 	addu	t0,v1,a2
  401f88:	c5000000 	lwc1	$f0,0(t0)
  401f8c:	24840001 	addiu	a0,a0,1
  401f90:	00653821 	addu	a3,v1,a1
  401f94:	0093102a 	slt	v0,a0,s3
  401f98:	1440fff9 	bnez	v0,401f80 <normal_exec+0x104>
  401f9c:	e4e00000 	swc1	$f0,0(a3)
  401fa0:	2610ffff 	addiu	s0,s0,-1
  401fa4:	1600ffe8 	bnez	s0,401f48 <normal_exec+0xcc>
  401fa8:	26310004 	addiu	s1,s1,4
  401fac:	1bc00007 	blez	s8,401fcc <normal_exec+0x150>
  401fb0:	8fa300a8 	lw	v1,168(sp)
  401fb4:	2404ffff 	li	a0,-1
  401fb8:	03c01021 	move	v0,s8
  401fbc:	2442ffff 	addiu	v0,v0,-1
  401fc0:	ac640000 	sw	a0,0(v1)
  401fc4:	1440fffd 	bnez	v0,401fbc <normal_exec+0x140>
  401fc8:	24630004 	addiu	v1,v1,4
  401fcc:	26430003 	addiu	v1,s2,3
  401fd0:	26440004 	addiu	a0,s2,4
  401fd4:	046000c8 	bltz	v1,4022f8 <normal_exec+0x47c>
  401fd8:	00601021 	move	v0,v1
  401fdc:	00023143 	sra	a2,v0,0x5
  401fe0:	0006a140 	sll	s4,a2,0x5
  401fe4:	00748023 	subu	s0,v1,s4
  401fe8:	00908823 	subu	s1,a0,s0
  401fec:	2630001f 	addiu	s0,s1,31
  401ff0:	02002821 	move	a1,s0
  401ff4:	0c108253 	jal	42094c <__libc_calloc>
  401ff8:	02c02021 	move	a0,s6
  401ffc:	8fa4004c 	lw	a0,76(sp)
  402000:	0c107eec 	jal	41fbb0 <__libc_malloc>
  402004:	afa20044 	sw	v0,68(sp)
  402008:	8fa4004c 	lw	a0,76(sp)
  40200c:	0c107eec 	jal	41fbb0 <__libc_malloc>
  402010:	0040a021 	move	s4,v0
  402014:	8fa40044 	lw	a0,68(sp)
  402018:	2c450001 	sltiu	a1,v0,1
  40201c:	2c970001 	sltiu	s7,a0,1
  402020:	02e59025 	or	s2,s7,a1
  402024:	164000b6 	bnez	s2,402300 <normal_exec+0x484>
  402028:	00408821 	move	s1,v0
  40202c:	128000b4 	beqz	s4,402300 <normal_exec+0x484>
  402030:	8fa90050 	lw	t1,80(sp)
  402034:	1120000c 	beqz	t1,402068 <normal_exec+0x1ec>
  402038:	00003821 	move	a3,zero
  40203c:	8fa60044 	lw	a2,68(sp)
  402040:	00077080 	sll	t6,a3,0x2
  402044:	24e70001 	addiu	a3,a3,1
  402048:	24cd0004 	addiu	t5,a2,4
  40204c:	01d16021 	addu	t4,t6,s1
  402050:	01d45821 	addu	t3,t6,s4
  402054:	00f6502a 	slt	t2,a3,s6
  402058:	ad660000 	sw	a2,0(t3)
  40205c:	ad8d0000 	sw	t5,0(t4)
  402060:	1540fff7 	bnez	t2,402040 <normal_exec+0x1c4>
  402064:	00d03021 	addu	a2,a2,s0
  402068:	27a40030 	addiu	a0,sp,48
  40206c:	0c108cf2 	jal	4233c8 <__gettimeofday>
  402070:	00002821 	move	a1,zero
  402074:	8fbf0090 	lw	ra,144(sp)
  402078:	8fb80090 	lw	t8,144(sp)
  40207c:	449e1000 	mtc1	s8,$f2
  402080:	001fc840 	sll	t9,ra,0x1
  402084:	270fffff 	addiu	t7,t8,-1
  402088:	afb90048 	sw	t9,72(sp)
  40208c:	afaf0054 	sw	t7,84(sp)
  402090:	46801520 	cvt.s.w	$f20,$f2
  402094:	0013b82a 	slt	s7,zero,s3
  402098:	8fa60090 	lw	a2,144(sp)
  40209c:	8fa40048 	lw	a0,72(sp)
  4020a0:	8fb20094 	lw	s2,148(sp)
  4020a4:	8fa800a8 	lw	t0,168(sp)
  4020a8:	24030001 	li	v1,1
  4020ac:	00868021 	addu	s0,a0,a2
  4020b0:	3c051000 	lui	a1,0x1000
  4020b4:	3c021000 	lui	v0,0x1000
  4020b8:	0066382a 	slt	a3,v1,a2
  4020bc:	acb001b4 	sw	s0,436(a1)
  4020c0:	afb20010 	sw	s2,16(sp)
  4020c4:	afb30014 	sw	s3,20(sp)
  4020c8:	afbe0018 	sw	s8,24(sp)
  4020cc:	afb6001c 	sw	s6,28(sp)
  4020d0:	afa80020 	sw	t0,32(sp)
  4020d4:	afb50024 	sw	s5,36(sp)
  4020d8:	afb40028 	sw	s4,40(sp)
  4020dc:	afb1002c 	sw	s1,44(sp)
  4020e0:	10e0000b 	beqz	a3,402110 <normal_exec+0x294>
  4020e4:	ac4001b0 	sw	zero,432(v0)
  4020e8:	8fa90090 	lw	t1,144(sp)
  4020ec:	3c120040 	lui	s2,0x40
  4020f0:	2530ffff 	addiu	s0,t1,-1
  4020f4:	2610ffff 	addiu	s0,s0,-1
  4020f8:	26441c90 	addiu	a0,s2,7312
  4020fc:	27a50010 	addiu	a1,sp,16
  402100:	0c10023d 	jal	4008f4 <sesc_spawn>
  402104:	00003021 	move	a2,zero
  402108:	5600fffb 	bnezl	s0,4020f8 <normal_exec+0x27c>
  40210c:	2610ffff 	addiu	s0,s0,-1
  402110:	0c100724 	jal	401c90 <work>
  402114:	27a40010 	addiu	a0,sp,16
  402118:	8fa30054 	lw	v1,84(sp)
  40211c:	18600006 	blez	v1,402138 <normal_exec+0x2bc>
  402120:	8fab0050 	lw	t3,80(sp)
  402124:	00608021 	move	s0,v1
  402128:	0c10027f 	jal	4009fc <sesc_wait>
  40212c:	2610ffff 	addiu	s0,s0,-1
  402130:	1600fffd 	bnez	s0,402128 <normal_exec+0x2ac>
  402134:	8fab0050 	lw	t3,80(sp)
  402138:	3c0a1000 	lui	t2,0x1000
  40213c:	c54601b0 	lwc1	$f6,432(t2)
  402140:	11600017 	beqz	t3,4021a0 <normal_exec+0x324>
  402144:	00005021 	move	t2,zero
  402148:	00003021 	move	a2,zero
  40214c:	12e0000e 	beqz	s7,402188 <normal_exec+0x30c>
  402150:	000a3880 	sll	a3,t2,0x2
  402154:	000a3880 	sll	a3,t2,0x2
  402158:	00f44821 	addu	t1,a3,s4
  40215c:	8d280000 	lw	t0,0(t1)
  402160:	15000045 	bnez	t0,402278 <normal_exec+0x3fc>
  402164:	00f54821 	addu	t1,a3,s5
  402168:	00f1c021 	addu	t8,a3,s1
  40216c:	8f0f0000 	lw	t7,0(t8)
  402170:	00067080 	sll	t6,a2,0x2
  402174:	24c60001 	addiu	a2,a2,1
  402178:	01cf6821 	addu	t5,t6,t7
  40217c:	00d3602a 	slt	t4,a2,s3
  402180:	1580fffa 	bnez	t4,40216c <normal_exec+0x2f0>
  402184:	ada00000 	sw	zero,0(t5)
  402188:	00f41021 	addu	v0,a3,s4
  40218c:	8c5f0000 	lw	ra,0(v0)
  402190:	254a0001 	addiu	t2,t2,1
  402194:	0156c82a 	slt	t9,t2,s6
  402198:	1720ffeb 	bnez	t9,402148 <normal_exec+0x2cc>
  40219c:	afe00000 	sw	zero,0(ra)
  4021a0:	46143103 	div.s	$f4,$f6,$f20
  4021a4:	4604b03c 	c.lt.s	$f22,$f4
  4021a8:	00000000 	nop
  4021ac:	45000006 	bc1f	4021c8 <normal_exec+0x34c>
  4021b0:	8fa50040 	lw	a1,64(sp)
  4021b4:	8fb20040 	lw	s2,64(sp)
  4021b8:	28a701f4 	slti	a3,a1,500
  4021bc:	26480001 	addiu	t0,s2,1
  4021c0:	14e0ffb5 	bnez	a3,402098 <normal_exec+0x21c>
  4021c4:	afa80040 	sw	t0,64(sp)
  4021c8:	00002821 	move	a1,zero
  4021cc:	0c108cf2 	jal	4233c8 <__gettimeofday>
  4021d0:	27a40038 	addiu	a0,sp,56
  4021d4:	3c170046 	lui	s7,0x46
  4021d8:	c7a0003c 	lwc1	$f0,60(sp)
  4021dc:	c7b20034 	lwc1	$f18,52(sp)
  4021e0:	d6e47178 	ldc1	$f4,29048(s7)
  4021e4:	46800421 	cvt.d.w	$f16,$f0
  4021e8:	468091a1 	cvt.d.w	$f6,$f18
  4021ec:	46243383 	div.d	$f14,$f6,$f4
  4021f0:	46248203 	div.d	$f8,$f16,$f4
  4021f4:	c7b60038 	lwc1	$f22,56(sp)
  4021f8:	c7b40030 	lwc1	$f20,48(sp)
  4021fc:	3c1e1000 	lui	s8,0x1000
  402200:	4680b2a1 	cvt.d.w	$f10,$f22
  402204:	4680a321 	cvt.d.w	$f12,$f20
  402208:	d7d206b0 	ldc1	$f18,1712(s8)
  40220c:	8fa40044 	lw	a0,68(sp)
  402210:	462e6080 	add.d	$f2,$f12,$f14
  402214:	46285000 	add.d	$f0,$f10,$f8
  402218:	46220401 	sub.d	$f16,$f0,$f2
  40221c:	46328180 	add.d	$f6,$f16,$f18
  402220:	f7c606b0 	sdc1	$f6,1712(s8)
  402224:	0c1080c0 	jal	420300 <__libc_free>
  402228:	00000000 	nop
  40222c:	0c1080c0 	jal	420300 <__libc_free>
  402230:	02202021 	move	a0,s1
  402234:	0c1080c0 	jal	420300 <__libc_free>
  402238:	02802021 	move	a0,s4
  40223c:	02a01021 	move	v0,s5
  402240:	8fbf007c 	lw	ra,124(sp)
  402244:	8fbe0078 	lw	s8,120(sp)
  402248:	8fb70074 	lw	s7,116(sp)
  40224c:	8fb60070 	lw	s6,112(sp)
  402250:	8fb5006c 	lw	s5,108(sp)
  402254:	8fb40068 	lw	s4,104(sp)
  402258:	8fb30064 	lw	s3,100(sp)
  40225c:	8fb20060 	lw	s2,96(sp)
  402260:	8fb1005c 	lw	s1,92(sp)
  402264:	8fb00058 	lw	s0,88(sp)
  402268:	d7b60088 	ldc1	$f22,136(sp)
  40226c:	d7b40080 	ldc1	$f20,128(sp)
  402270:	03e00008 	jr	ra
  402274:	27bd0090 	addiu	sp,sp,144
  402278:	00f17021 	addu	t6,a3,s1
  40227c:	8dcd0000 	lw	t5,0(t6)
  402280:	00065880 	sll	t3,a2,0x2
  402284:	c50e0000 	lwc1	$f14,0(t0)
  402288:	016d2021 	addu	a0,t3,t5
  40228c:	c48a0000 	lwc1	$f10,0(a0)
  402290:	46807320 	cvt.s.w	$f12,$f14
  402294:	8d2c0000 	lw	t4,0(t1)
  402298:	460c5203 	div.s	$f8,$f10,$f12
  40229c:	24c60001 	addiu	a2,a2,1
  4022a0:	016c1821 	addu	v1,t3,t4
  4022a4:	00d3802a 	slt	s0,a2,s3
  4022a8:	e4680000 	swc1	$f8,0(v1)
  4022ac:	1200ffb6 	beqz	s0,402188 <normal_exec+0x30c>
  4022b0:	ac800000 	sw	zero,0(a0)
  4022b4:	00f17021 	addu	t6,a3,s1
  4022b8:	8dcd0000 	lw	t5,0(t6)
  4022bc:	00065880 	sll	t3,a2,0x2
  4022c0:	c50e0000 	lwc1	$f14,0(t0)
  4022c4:	016d2021 	addu	a0,t3,t5
  4022c8:	c48a0000 	lwc1	$f10,0(a0)
  4022cc:	46807320 	cvt.s.w	$f12,$f14
  4022d0:	8d2c0000 	lw	t4,0(t1)
  4022d4:	460c5203 	div.s	$f8,$f10,$f12
  4022d8:	24c60001 	addiu	a2,a2,1
  4022dc:	016c1821 	addu	v1,t3,t4
  4022e0:	00d3802a 	slt	s0,a2,s3
  4022e4:	e4680000 	swc1	$f8,0(v1)
  4022e8:	1600ffe4 	bnez	s0,40227c <normal_exec+0x400>
  4022ec:	ac800000 	sw	zero,0(a0)
  4022f0:	08100863 	j	40218c <normal_exec+0x310>
  4022f4:	00f41021 	addu	v0,a3,s4
  4022f8:	081007f7 	j	401fdc <normal_exec+0x160>
  4022fc:	26420022 	addiu	v0,s2,34
  402300:	3c160046 	lui	s6,0x46
  402304:	3c150046 	lui	s5,0x46
  402308:	3c130046 	lui	s3,0x46
  40230c:	26c47120 	addiu	a0,s6,28960
  402310:	26a57150 	addiu	a1,s5,29008
  402314:	26677110 	addiu	a3,s3,28944
  402318:	0c102748 	jal	409d20 <__assert_fail>
  40231c:	240600fd 	li	a2,253
  402320:	3c060046 	lui	a2,0x46
  402324:	3c090046 	lui	t1,0x46
  402328:	3c080046 	lui	t0,0x46
  40232c:	24c77110 	addiu	a3,a2,28944
  402330:	2524715c 	addiu	a0,t1,29020
  402334:	25057150 	addiu	a1,t0,29008
  402338:	0c102748 	jal	409d20 <__assert_fail>
  40233c:	240600e1 	li	a2,225
  402340:	3c040046 	lui	a0,0x46
  402344:	3c050046 	lui	a1,0x46
  402348:	3c070046 	lui	a3,0x46
  40234c:	24847168 	addiu	a0,a0,29032
  402350:	24a57150 	addiu	a1,a1,29008
  402354:	24e77110 	addiu	a3,a3,28944
  402358:	0c102748 	jal	409d20 <__assert_fail>
  40235c:	240600df 	li	a2,223

00402360 <init_genrand>:
  402360:	3c026c07 	lui	v0,0x6c07
  402364:	ac860000 	sw	a2,0(a0)
  402368:	34478965 	ori	a3,v0,0x8965
  40236c:	24840004 	addiu	a0,a0,4
  402370:	24060001 	li	a2,1
  402374:	8c8bfffc 	lw	t3,-4(a0)
  402378:	000b6782 	srl	t4,t3,0x1e
  40237c:	016c5026 	xor	t2,t3,t4
  402380:	01470018 	mult	t2,a3
  402384:	00004812 	mflo	t1
  402388:	01264021 	addu	t0,t1,a2
  40238c:	24c60001 	addiu	a2,a2,1
  402390:	2cc30270 	sltiu	v1,a2,624
  402394:	ac880000 	sw	t0,0(a0)
  402398:	1460fff6 	bnez	v1,402374 <init_genrand+0x14>
  40239c:	24840004 	addiu	a0,a0,4
  4023a0:	24040270 	li	a0,624
  4023a4:	03e00008 	jr	ra
  4023a8:	aca40000 	sw	a0,0(a1)

004023ac <init_by_array>:
  4023ac:	00805021 	move	t2,a0
  4023b0:	3c04012b 	lui	a0,0x12b
  4023b4:	3483d6aa 	ori	v1,a0,0xd6aa
  4023b8:	3c026c07 	lui	v0,0x6c07
  4023bc:	00a0c021 	move	t8,a1
  4023c0:	00c07021 	move	t6,a2
  4023c4:	ad430000 	sw	v1,0(t2)
  4023c8:	00e07821 	move	t7,a3
  4023cc:	34468965 	ori	a2,v0,0x8965
  4023d0:	24050001 	li	a1,1
  4023d4:	25440004 	addiu	a0,t2,4
  4023d8:	8c8cfffc 	lw	t4,-4(a0)
  4023dc:	000c6f82 	srl	t5,t4,0x1e
  4023e0:	018d5826 	xor	t3,t4,t5
  4023e4:	01660018 	mult	t3,a2
  4023e8:	00004812 	mflo	t1
  4023ec:	01254021 	addu	t0,t1,a1
  4023f0:	24a50001 	addiu	a1,a1,1
  4023f4:	2ca70270 	sltiu	a3,a1,624
  4023f8:	ac880000 	sw	t0,0(a0)
  4023fc:	14e0fff6 	bnez	a3,4023d8 <init_by_array+0x2c>
  402400:	24840004 	addiu	a0,a0,4
  402404:	24060270 	li	a2,624
  402408:	29e50270 	slti	a1,t7,624
  40240c:	01e05821 	move	t3,t7
  402410:	af060000 	sw	a2,0(t8)
  402414:	24090001 	li	t1,1
  402418:	10a0003c 	beqz	a1,40250c <init_by_array+0x160>
  40241c:	00006021 	move	t4,zero
  402420:	240b0270 	li	t3,624
  402424:	3c190019 	lui	t9,0x19
  402428:	372d660d 	ori	t5,t9,0x660d
  40242c:	00092880 	sll	a1,t1,0x2
  402430:	00aa2821 	addu	a1,a1,t2
  402434:	8cb9fffc 	lw	t9,-4(a1)
  402438:	000c1080 	sll	v0,t4,0x2
  40243c:	004e4021 	addu	t0,v0,t6
  402440:	00193f82 	srl	a3,t9,0x1e
  402444:	03273026 	xor	a2,t9,a3
  402448:	00cd0018 	mult	a2,t5
  40244c:	8ca20000 	lw	v0,0(a1)
  402450:	8d070000 	lw	a3,0(t0)
  402454:	25860001 	addiu	a2,t4,1
  402458:	25290001 	addiu	t1,t1,1
  40245c:	00cf182a 	slt	v1,a2,t7
  402460:	00031823 	negu	v1,v1
  402464:	29280270 	slti	t0,t1,624
  402468:	256bffff 	addiu	t3,t3,-1
  40246c:	00002012 	mflo	a0
  402470:	0044c826 	xor	t9,v0,a0
  402474:	03272021 	addu	a0,t9,a3
  402478:	008c1021 	addu	v0,a0,t4
  40247c:	aca20000 	sw	v0,0(a1)
  402480:	15000004 	bnez	t0,402494 <init_by_array+0xe8>
  402484:	00c36024 	and	t4,a2,v1
  402488:	8d4409bc 	lw	a0,2492(t2)
  40248c:	24090001 	li	t1,1
  402490:	ad440000 	sw	a0,0(t2)
  402494:	1560ffe6 	bnez	t3,402430 <init_by_array+0x84>
  402498:	00092880 	sll	a1,t1,0x2
  40249c:	3c0e5d58 	lui	t6,0x5d58
  4024a0:	35c78b65 	ori	a3,t6,0x8b65
  4024a4:	2406026f 	li	a2,623
  4024a8:	00092880 	sll	a1,t1,0x2
  4024ac:	00aa5821 	addu	t3,a1,t2
  4024b0:	8d62fffc 	lw	v0,-4(t3)
  4024b4:	8d680000 	lw	t0,0(t3)
  4024b8:	24c6ffff 	addiu	a2,a2,-1
  4024bc:	00022782 	srl	a0,v0,0x1e
  4024c0:	0044c826 	xor	t9,v0,a0
  4024c4:	03270018 	mult	t9,a3
  4024c8:	00001812 	mflo	v1
  4024cc:	01036826 	xor	t5,t0,v1
  4024d0:	01a96023 	subu	t4,t5,t1
  4024d4:	25290001 	addiu	t1,t1,1
  4024d8:	292f0270 	slti	t7,t1,624
  4024dc:	15e00004 	bnez	t7,4024f0 <init_by_array+0x144>
  4024e0:	ad6c0000 	sw	t4,0(t3)
  4024e4:	8d4e09bc 	lw	t6,2492(t2)
  4024e8:	24090001 	li	t1,1
  4024ec:	ad4e0000 	sw	t6,0(t2)
  4024f0:	14c0ffee 	bnez	a2,4024ac <init_by_array+0x100>
  4024f4:	00092880 	sll	a1,t1,0x2
  4024f8:	3c098000 	lui	t1,0x8000
  4024fc:	ad490000 	sw	t1,0(t2)
  402500:	240a0271 	li	t2,625
  402504:	03e00008 	jr	ra
  402508:	af0a0000 	sw	t2,0(t8)
  40250c:	15e0ffc6 	bnez	t7,402428 <init_by_array+0x7c>
  402510:	3c190019 	lui	t9,0x19
  402514:	08100928 	j	4024a0 <init_by_array+0xf4>
  402518:	3c0e5d58 	lui	t6,0x5d58

0040251c <genrand_int32>:
  40251c:	8ca60000 	lw	a2,0(a1)
  402520:	00a06021 	move	t4,a1
  402524:	2cc20270 	sltiu	v0,a2,624
  402528:	14400048 	bnez	v0,40264c <genrand_int32+0x130>
  40252c:	00805821 	move	t3,a0
  402530:	24030271 	li	v1,625
  402534:	10c30058 	beq	a2,v1,402698 <genrand_int32+0x17c>
  402538:	24051571 	li	a1,5489
  40253c:	3c0d0049 	lui	t5,0x49
  402540:	3c0f7fff 	lui	t7,0x7fff
  402544:	35eaffff 	ori	t2,t7,0xffff
  402548:	3c098000 	lui	t1,0x8000
  40254c:	25a8a9c0 	addiu	t0,t5,-22080
  402550:	01603021 	move	a2,t3
  402554:	240700e2 	li	a3,226
  402558:	8cc30000 	lw	v1,0(a2)
  40255c:	8cc20004 	lw	v0,4(a2)
  402560:	8cc50634 	lw	a1,1588(a2)
  402564:	0069c824 	and	t9,v1,t1
  402568:	004a2024 	and	a0,v0,t2
  40256c:	03241825 	or	v1,t9,a0
  402570:	30780001 	andi	t8,v1,0x1
  402574:	00187880 	sll	t7,t8,0x2
  402578:	01e87021 	addu	t6,t7,t0
  40257c:	8dc40000 	lw	a0,0(t6)
  402580:	00031042 	srl	v0,v1,0x1
  402584:	00a2c826 	xor	t9,a1,v0
  402588:	0324c026 	xor	t8,t9,a0
  40258c:	24e7ffff 	addiu	a3,a3,-1
  402590:	acd80000 	sw	t8,0(a2)
  402594:	04e1fff0 	bgez	a3,402558 <genrand_int32+0x3c>
  402598:	24c60004 	addiu	a2,a2,4
  40259c:	3c087fff 	lui	t0,0x7fff
  4025a0:	3c070049 	lui	a3,0x49
  4025a4:	350affff 	ori	t2,t0,0xffff
  4025a8:	24e9a9c0 	addiu	t1,a3,-22080
  4025ac:	3c088000 	lui	t0,0x8000
  4025b0:	240700e3 	li	a3,227
  4025b4:	2566038c 	addiu	a2,t3,908
  4025b8:	8cc30000 	lw	v1,0(a2)
  4025bc:	8cc40004 	lw	a0,4(a2)
  4025c0:	8cd9fc74 	lw	t9,-908(a2)
  4025c4:	00687824 	and	t7,v1,t0
  4025c8:	008ac024 	and	t8,a0,t2
  4025cc:	01f81825 	or	v1,t7,t8
  4025d0:	30650001 	andi	a1,v1,0x1
  4025d4:	00057080 	sll	t6,a1,0x2
  4025d8:	01c91021 	addu	v0,t6,t1
  4025dc:	8c580000 	lw	t8,0(v0)
  4025e0:	00032042 	srl	a0,v1,0x1
  4025e4:	03247826 	xor	t7,t9,a0
  4025e8:	24e70001 	addiu	a3,a3,1
  4025ec:	01f82826 	xor	a1,t7,t8
  4025f0:	28ee026f 	slti	t6,a3,623
  4025f4:	acc50000 	sw	a1,0(a2)
  4025f8:	15c0ffef 	bnez	t6,4025b8 <genrand_int32+0x9c>
  4025fc:	24c60004 	addiu	a2,a2,4
  402600:	8d6a09bc 	lw	t2,2492(t3)
  402604:	8d640000 	lw	a0,0(t3)
  402608:	3c097fff 	lui	t1,0x7fff
  40260c:	3c068000 	lui	a2,0x8000
  402610:	3523ffff 	ori	v1,t1,0xffff
  402614:	01462824 	and	a1,t2,a2
  402618:	0083c024 	and	t8,a0,v1
  40261c:	00b84025 	or	t0,a1,t8
  402620:	310f0001 	andi	t7,t0,0x1
  402624:	25aea9c0 	addiu	t6,t5,-22080
  402628:	000f1080 	sll	v0,t7,0x2
  40262c:	8d660630 	lw	a2,1584(t3)
  402630:	004ec821 	addu	t9,v0,t6
  402634:	8f2d0000 	lw	t5,0(t9)
  402638:	00083842 	srl	a3,t0,0x1
  40263c:	00c75026 	xor	t2,a2,a3
  402640:	014d4826 	xor	t1,t2,t5
  402644:	ad6909bc 	sw	t1,2492(t3)
  402648:	00003021 	move	a2,zero
  40264c:	00063880 	sll	a3,a2,0x2
  402650:	00eb6821 	addu	t5,a3,t3
  402654:	8da90000 	lw	t1,0(t5)
  402658:	3c039d2c 	lui	v1,0x9d2c
  40265c:	34645680 	ori	a0,v1,0x5680
  402660:	000952c2 	srl	t2,t1,0xb
  402664:	012a1026 	xor	v0,t1,t2
  402668:	0002c1c0 	sll	t8,v0,0x7
  40266c:	03042824 	and	a1,t8,a0
  402670:	00454026 	xor	t0,v0,a1
  402674:	000873c0 	sll	t6,t0,0xf
  402678:	3c0fefc6 	lui	t7,0xefc6
  40267c:	01cfc824 	and	t9,t6,t7
  402680:	01195826 	xor	t3,t0,t9
  402684:	000b6c82 	srl	t5,t3,0x12
  402688:	24c70001 	addiu	a3,a2,1
  40268c:	016d1026 	xor	v0,t3,t5
  402690:	03e00008 	jr	ra
  402694:	ad870000 	sw	a3,0(t4)
  402698:	ac850000 	sw	a1,0(a0)
  40269c:	3c046c07 	lui	a0,0x6c07
  4026a0:	34868965 	ori	a2,a0,0x8965
  4026a4:	24050001 	li	a1,1
  4026a8:	25640004 	addiu	a0,t3,4
  4026ac:	8c8dfffc 	lw	t5,-4(a0)
  4026b0:	000d7782 	srl	t6,t5,0x1e
  4026b4:	01ae5026 	xor	t2,t5,t6
  4026b8:	01460018 	mult	t2,a2
  4026bc:	00004812 	mflo	t1
  4026c0:	01254021 	addu	t0,t1,a1
  4026c4:	24a50001 	addiu	a1,a1,1
  4026c8:	2ca70270 	sltiu	a3,a1,624
  4026cc:	ac880000 	sw	t0,0(a0)
  4026d0:	14e0fff6 	bnez	a3,4026ac <genrand_int32+0x190>
  4026d4:	24840004 	addiu	a0,a0,4
  4026d8:	24060270 	li	a2,624
  4026dc:	0810094f 	j	40253c <genrand_int32+0x20>
  4026e0:	ad860000 	sw	a2,0(t4)

004026e4 <genrand_int31>:
  4026e4:	27bdffe8 	addiu	sp,sp,-24
  4026e8:	afbf0010 	sw	ra,16(sp)
  4026ec:	0c100947 	jal	40251c <genrand_int32>
  4026f0:	00000000 	nop
  4026f4:	8fbf0010 	lw	ra,16(sp)
  4026f8:	00021042 	srl	v0,v0,0x1
  4026fc:	03e00008 	jr	ra
  402700:	27bd0018 	addiu	sp,sp,24

00402704 <genrand_real1>:
  402704:	27bdffe8 	addiu	sp,sp,-24
  402708:	afbf0010 	sw	ra,16(sp)
  40270c:	0c100947 	jal	40251c <genrand_int32>
  402710:	00000000 	nop
  402714:	44820000 	mtc1	v0,$f0
  402718:	04400007 	bltz	v0,402738 <genrand_real1+0x34>
  40271c:	468000a1 	cvt.d.w	$f2,$f0
  402720:	3c030046 	lui	v1,0x46
  402724:	d4667188 	ldc1	$f6,29064(v1)
  402728:	8fbf0010 	lw	ra,16(sp)
  40272c:	27bd0018 	addiu	sp,sp,24
  402730:	03e00008 	jr	ra
  402734:	46261002 	mul.d	$f0,$f2,$f6
  402738:	3c020046 	lui	v0,0x46
  40273c:	d4447180 	ldc1	$f4,29056(v0)
  402740:	3c030046 	lui	v1,0x46
  402744:	d4667188 	ldc1	$f6,29064(v1)
  402748:	46241080 	add.d	$f2,$f2,$f4
  40274c:	8fbf0010 	lw	ra,16(sp)
  402750:	27bd0018 	addiu	sp,sp,24
  402754:	03e00008 	jr	ra
  402758:	46261002 	mul.d	$f0,$f2,$f6

0040275c <genrand_real2>:
  40275c:	27bdffe8 	addiu	sp,sp,-24
  402760:	afbf0010 	sw	ra,16(sp)
  402764:	0c100947 	jal	40251c <genrand_int32>
  402768:	00000000 	nop
  40276c:	44820000 	mtc1	v0,$f0
  402770:	04400007 	bltz	v0,402790 <genrand_real2+0x34>
  402774:	468000a1 	cvt.d.w	$f2,$f0
  402778:	3c030046 	lui	v1,0x46
  40277c:	d4667190 	ldc1	$f6,29072(v1)
  402780:	8fbf0010 	lw	ra,16(sp)
  402784:	27bd0018 	addiu	sp,sp,24
  402788:	03e00008 	jr	ra
  40278c:	46261002 	mul.d	$f0,$f2,$f6
  402790:	3c020046 	lui	v0,0x46
  402794:	d4447180 	ldc1	$f4,29056(v0)
  402798:	3c030046 	lui	v1,0x46
  40279c:	d4667190 	ldc1	$f6,29072(v1)
  4027a0:	46241080 	add.d	$f2,$f2,$f4
  4027a4:	8fbf0010 	lw	ra,16(sp)
  4027a8:	27bd0018 	addiu	sp,sp,24
  4027ac:	03e00008 	jr	ra
  4027b0:	46261002 	mul.d	$f0,$f2,$f6

004027b4 <genrand_real3>:
  4027b4:	27bdffe8 	addiu	sp,sp,-24
  4027b8:	afbf0010 	sw	ra,16(sp)
  4027bc:	0c100947 	jal	40251c <genrand_int32>
  4027c0:	00000000 	nop
  4027c4:	44820000 	mtc1	v0,$f0
  4027c8:	0440000a 	bltz	v0,4027f4 <genrand_real3+0x40>
  4027cc:	468000a1 	cvt.d.w	$f2,$f0
  4027d0:	3c040046 	lui	a0,0x46
  4027d4:	d4887198 	ldc1	$f8,29080(a0)
  4027d8:	3c030046 	lui	v1,0x46
  4027dc:	8fbf0010 	lw	ra,16(sp)
  4027e0:	46281180 	add.d	$f6,$f2,$f8
  4027e4:	d4627190 	ldc1	$f2,29072(v1)
  4027e8:	27bd0018 	addiu	sp,sp,24
  4027ec:	03e00008 	jr	ra
  4027f0:	46223002 	mul.d	$f0,$f6,$f2
  4027f4:	3c020046 	lui	v0,0x46
  4027f8:	d4447180 	ldc1	$f4,29056(v0)
  4027fc:	3c040046 	lui	a0,0x46
  402800:	d4887198 	ldc1	$f8,29080(a0)
  402804:	46241080 	add.d	$f2,$f2,$f4
  402808:	3c030046 	lui	v1,0x46
  40280c:	8fbf0010 	lw	ra,16(sp)
  402810:	46281180 	add.d	$f6,$f2,$f8
  402814:	d4627190 	ldc1	$f2,29072(v1)
  402818:	27bd0018 	addiu	sp,sp,24
  40281c:	03e00008 	jr	ra
  402820:	46223002 	mul.d	$f0,$f6,$f2

00402824 <genrand_res53>:
  402824:	27bdffe0 	addiu	sp,sp,-32
  402828:	afb10014 	sw	s1,20(sp)
  40282c:	afb00010 	sw	s0,16(sp)
  402830:	00a08821 	move	s1,a1
  402834:	afbf0018 	sw	ra,24(sp)
  402838:	0c100947 	jal	40251c <genrand_int32>
  40283c:	00808021 	move	s0,a0
  402840:	02002021 	move	a0,s0
  402844:	02202821 	move	a1,s1
  402848:	0c100947 	jal	40251c <genrand_int32>
  40284c:	00028142 	srl	s0,v0,0x5
  402850:	00021982 	srl	v1,v0,0x6
  402854:	44831000 	mtc1	v1,$f2
  402858:	44900000 	mtc1	s0,$f0
  40285c:	46801121 	cvt.d.w	$f4,$f2
  402860:	0600000e 	bltz	s0,40289c <genrand_res53+0x78>
  402864:	468000a1 	cvt.d.w	$f2,$f0
  402868:	3c040046 	lui	a0,0x46
  40286c:	d48871a0 	ldc1	$f8,29088(a0)
  402870:	04600011 	bltz	v1,4028b8 <genrand_res53+0x94>
  402874:	46281082 	mul.d	$f2,$f2,$f8
  402878:	3c050046 	lui	a1,0x46
  40287c:	46241300 	add.d	$f12,$f2,$f4
  402880:	d4a471a8 	ldc1	$f4,29096(a1)
  402884:	8fbf0018 	lw	ra,24(sp)
  402888:	8fb10014 	lw	s1,20(sp)
  40288c:	46246002 	mul.d	$f0,$f12,$f4
  402890:	8fb00010 	lw	s0,16(sp)
  402894:	03e00008 	jr	ra
  402898:	27bd0020 	addiu	sp,sp,32
  40289c:	3c020046 	lui	v0,0x46
  4028a0:	d4467180 	ldc1	$f6,29056(v0)
  4028a4:	3c040046 	lui	a0,0x46
  4028a8:	d48871a0 	ldc1	$f8,29088(a0)
  4028ac:	46261080 	add.d	$f2,$f2,$f6
  4028b0:	0461fff1 	bgez	v1,402878 <genrand_res53+0x54>
  4028b4:	46281082 	mul.d	$f2,$f2,$f8
  4028b8:	3c030046 	lui	v1,0x46
  4028bc:	d46a7180 	ldc1	$f10,29056(v1)
  4028c0:	3c050046 	lui	a1,0x46
  4028c4:	8fbf0018 	lw	ra,24(sp)
  4028c8:	462a2100 	add.d	$f4,$f4,$f10
  4028cc:	8fb10014 	lw	s1,20(sp)
  4028d0:	8fb00010 	lw	s0,16(sp)
  4028d4:	46241300 	add.d	$f12,$f2,$f4
  4028d8:	d4a471a8 	ldc1	$f4,29096(a1)
  4028dc:	27bd0020 	addiu	sp,sp,32
  4028e0:	03e00008 	jr	ra
  4028e4:	46246002 	mul.d	$f0,$f12,$f4
	...

004028f0 <random_alloc>:
  4028f0:	27bdffe8 	addiu	sp,sp,-24
  4028f4:	afb00010 	sw	s0,16(sp)
  4028f8:	afbf0014 	sw	ra,20(sp)
  4028fc:	0c107eec 	jal	41fbb0 <__libc_malloc>
  402900:	240409c8 	li	a0,2504
  402904:	00408021 	move	s0,v0
  402908:	24440004 	addiu	a0,v0,4
  40290c:	244509c4 	addiu	a1,v0,2500
  402910:	10400004 	beqz	v0,402924 <random_alloc+0x34>
  402914:	00003021 	move	a2,zero
  402918:	24020270 	li	v0,624
  40291c:	0c1008d8 	jal	402360 <init_genrand>
  402920:	ae0209c4 	sw	v0,2500(s0)
  402924:	02001021 	move	v0,s0
  402928:	8fbf0014 	lw	ra,20(sp)
  40292c:	8fb00010 	lw	s0,16(sp)
  402930:	03e00008 	jr	ra
  402934:	27bd0018 	addiu	sp,sp,24

00402938 <Prandom_alloc>:
  402938:	27bdffe8 	addiu	sp,sp,-24
  40293c:	afbf0014 	sw	ra,20(sp)
  402940:	0c100b92 	jal	402e48 <thread_getId>
  402944:	afb00010 	sw	s0,16(sp)
  402948:	00402021 	move	a0,v0
  40294c:	0c100b2c 	jal	402cb0 <memory_get>
  402950:	240509c8 	li	a1,2504
  402954:	00408021 	move	s0,v0
  402958:	24440004 	addiu	a0,v0,4
  40295c:	244509c4 	addiu	a1,v0,2500
  402960:	10400004 	beqz	v0,402974 <Prandom_alloc+0x3c>
  402964:	00003021 	move	a2,zero
  402968:	24020270 	li	v0,624
  40296c:	0c1008d8 	jal	402360 <init_genrand>
  402970:	ae0209c4 	sw	v0,2500(s0)
  402974:	02001021 	move	v0,s0
  402978:	8fbf0014 	lw	ra,20(sp)
  40297c:	8fb00010 	lw	s0,16(sp)
  402980:	03e00008 	jr	ra
  402984:	27bd0018 	addiu	sp,sp,24

00402988 <random_free>:
  402988:	081080c0 	j	420300 <__libc_free>
  40298c:	00000000 	nop

00402990 <Prandom_free>:
  402990:	03e00008 	jr	ra
  402994:	00000000 	nop

00402998 <random_seed>:
  402998:	00a03021 	move	a2,a1
  40299c:	248509c4 	addiu	a1,a0,2500
  4029a0:	081008d8 	j	402360 <init_genrand>
  4029a4:	24840004 	addiu	a0,a0,4

004029a8 <random_generate>:
  4029a8:	248509c4 	addiu	a1,a0,2500
  4029ac:	08100947 	j	40251c <genrand_int32>
  4029b0:	24840004 	addiu	a0,a0,4
	...

004029c0 <freeBlocks>:
  4029c0:	27bdffe8 	addiu	sp,sp,-24
  4029c4:	afb00010 	sw	s0,16(sp)
  4029c8:	afbf0014 	sw	ra,20(sp)
  4029cc:	1080000a 	beqz	a0,4029f8 <freeBlocks+0x38>
  4029d0:	00808021 	move	s0,a0
  4029d4:	0c100a70 	jal	4029c0 <freeBlocks>
  4029d8:	8c84002c 	lw	a0,44(a0)
  4029dc:	0c1080c0 	jal	420300 <__libc_free>
  4029e0:	8e040028 	lw	a0,40(s0)
  4029e4:	02002021 	move	a0,s0
  4029e8:	8fbf0014 	lw	ra,20(sp)
  4029ec:	8fb00010 	lw	s0,16(sp)
  4029f0:	081080c0 	j	420300 <__libc_free>
  4029f4:	27bd0018 	addiu	sp,sp,24
  4029f8:	8fbf0014 	lw	ra,20(sp)
  4029fc:	8fb00010 	lw	s0,16(sp)
  402a00:	03e00008 	jr	ra
  402a04:	27bd0018 	addiu	sp,sp,24

00402a08 <memory_init>:
  402a08:	27bdffc8 	addiu	sp,sp,-56
  402a0c:	afbe0030 	sw	s8,48(sp)
  402a10:	afb7002c 	sw	s7,44(sp)
  402a14:	afbf0034 	sw	ra,52(sp)
  402a18:	afb60028 	sw	s6,40(sp)
  402a1c:	afb50024 	sw	s5,36(sp)
  402a20:	afb40020 	sw	s4,32(sp)
  402a24:	afb3001c 	sw	s3,28(sp)
  402a28:	afb20018 	sw	s2,24(sp)
  402a2c:	afb10014 	sw	s1,20(sp)
  402a30:	afb00010 	sw	s0,16(sp)
  402a34:	0080b821 	move	s7,a0
  402a38:	afa5003c 	sw	a1,60(sp)
  402a3c:	18800069 	blez	a0,402be4 <memory_init+0x1dc>
  402a40:	00c0f021 	move	s8,a2
  402a44:	0c107eec 	jal	41fbb0 <__libc_malloc>
  402a48:	24040008 	li	a0,8
  402a4c:	3c151000 	lui	s5,0x1000
  402a50:	00408021 	move	s0,v0
  402a54:	aea206c0 	sw	v0,1728(s5)
  402a58:	1040003f 	beqz	v0,402b58 <memory_init+0x150>
  402a5c:	00002021 	move	a0,zero
  402a60:	0c107eec 	jal	41fbb0 <__libc_malloc>
  402a64:	00172080 	sll	a0,s7,0x2
  402a68:	8ea306c0 	lw	v1,1728(s5)
  402a6c:	ae020000 	sw	v0,0(s0)
  402a70:	8c620000 	lw	v0,0(v1)
  402a74:	10400038 	beqz	v0,402b58 <memory_init+0x150>
  402a78:	00002021 	move	a0,zero
  402a7c:	08100ac4 	j	402b10 <memory_init+0x108>
  402a80:	00009821 	move	s3,zero
  402a84:	1240004f 	beqz	s2,402bc4 <memory_init+0x1bc>
  402a88:	ae22000c 	sw	v0,12(s1)
  402a8c:	0c107eec 	jal	41fbb0 <__libc_malloc>
  402a90:	24040050 	li	a0,80
  402a94:	00408021 	move	s0,v0
  402a98:	1040000a 	beqz	v0,402ac4 <memory_init+0xbc>
  402a9c:	00001821 	move	v1,zero
  402aa0:	26440001 	addiu	a0,s2,1
  402aa4:	ac400020 	sw	zero,32(v0)
  402aa8:	0c107eec 	jal	41fbb0 <__libc_malloc>
  402aac:	ac520024 	sw	s2,36(v0)
  402ab0:	ae020028 	sw	v0,40(s0)
  402ab4:	10400003 	beqz	v0,402ac4 <memory_init+0xbc>
  402ab8:	00001821 	move	v1,zero
  402abc:	ae00002c 	sw	zero,44(s0)
  402ac0:	02001821 	move	v1,s0
  402ac4:	ae230000 	sw	v1,0(s1)
  402ac8:	10600007 	beqz	v1,402ae8 <memory_init+0xe0>
  402acc:	00002821 	move	a1,zero
  402ad0:	8e2e0008 	lw	t6,8(s1)
  402ad4:	8e2d000c 	lw	t5,12(s1)
  402ad8:	02202821 	move	a1,s1
  402adc:	01cd0018 	mult	t6,t5
  402ae0:	00006012 	mflo	t4
  402ae4:	ae2c0004 	sw	t4,4(s1)
  402ae8:	8ea406c0 	lw	a0,1728(s5)
  402aec:	aec50000 	sw	a1,0(s6)
  402af0:	8c910000 	lw	s1,0(a0)
  402af4:	02918021 	addu	s0,s4,s1
  402af8:	8e0f0000 	lw	t7,0(s0)
  402afc:	11e00015 	beqz	t7,402b54 <memory_init+0x14c>
  402b00:	26730001 	addiu	s3,s3,1
  402b04:	0277902a 	slt	s2,s3,s7
  402b08:	52400020 	beqzl	s2,402b8c <memory_init+0x184>
  402b0c:	ac970004 	sw	s7,4(a0)
  402b10:	8ea806c0 	lw	t0,1728(s5)
  402b14:	0013a080 	sll	s4,s3,0x2
  402b18:	24040010 	li	a0,16
  402b1c:	8d060000 	lw	a2,0(t0)
  402b20:	0c107eec 	jal	41fbb0 <__libc_malloc>
  402b24:	0286b021 	addu	s6,s4,a2
  402b28:	00408821 	move	s1,v0
  402b2c:	1040ffee 	beqz	v0,402ae8 <memory_init+0xe0>
  402b30:	00002821 	move	a1,zero
  402b34:	8fb2003c 	lw	s2,60(sp)
  402b38:	52400001 	beqzl	s2,402b40 <memory_init+0x138>
  402b3c:	24120010 	li	s2,16
  402b40:	03c01021 	move	v0,s8
  402b44:	1fc0ffcf 	bgtz	s8,402a84 <memory_init+0x7c>
  402b48:	ae320008 	sw	s2,8(s1)
  402b4c:	08100aa1 	j	402a84 <memory_init+0x7c>
  402b50:	24020002 	li	v0,2
  402b54:	00002021 	move	a0,zero
  402b58:	8fbf0034 	lw	ra,52(sp)
  402b5c:	8fbe0030 	lw	s8,48(sp)
  402b60:	8fb7002c 	lw	s7,44(sp)
  402b64:	8fb60028 	lw	s6,40(sp)
  402b68:	8fb50024 	lw	s5,36(sp)
  402b6c:	8fb40020 	lw	s4,32(sp)
  402b70:	8fb3001c 	lw	s3,28(sp)
  402b74:	8fb20018 	lw	s2,24(sp)
  402b78:	8fb10014 	lw	s1,20(sp)
  402b7c:	8fb00010 	lw	s0,16(sp)
  402b80:	00801021 	move	v0,a0
  402b84:	03e00008 	jr	ra
  402b88:	27bd0038 	addiu	sp,sp,56
  402b8c:	8fbf0034 	lw	ra,52(sp)
  402b90:	8fbe0030 	lw	s8,48(sp)
  402b94:	8fb7002c 	lw	s7,44(sp)
  402b98:	8fb60028 	lw	s6,40(sp)
  402b9c:	8fb50024 	lw	s5,36(sp)
  402ba0:	8fb40020 	lw	s4,32(sp)
  402ba4:	8fb3001c 	lw	s3,28(sp)
  402ba8:	8fb20018 	lw	s2,24(sp)
  402bac:	8fb10014 	lw	s1,20(sp)
  402bb0:	8fb00010 	lw	s0,16(sp)
  402bb4:	24040001 	li	a0,1
  402bb8:	00801021 	move	v0,a0
  402bbc:	03e00008 	jr	ra
  402bc0:	27bd0038 	addiu	sp,sp,56
  402bc4:	3c0b0046 	lui	t3,0x46
  402bc8:	3c0a0046 	lui	t2,0x46
  402bcc:	3c090046 	lui	t1,0x46
  402bd0:	256471e0 	addiu	a0,t3,29152
  402bd4:	254571f0 	addiu	a1,t2,29168
  402bd8:	252771bc 	addiu	a3,t1,29116
  402bdc:	0c102748 	jal	409d20 <__assert_fail>
  402be0:	24060076 	li	a2,118
  402be4:	3c040046 	lui	a0,0x46
  402be8:	3c050046 	lui	a1,0x46
  402bec:	3c070046 	lui	a3,0x46
  402bf0:	24847200 	addiu	a0,a0,29184
  402bf4:	24a571f0 	addiu	a1,a1,29168
  402bf8:	24e771b0 	addiu	a3,a3,29104
  402bfc:	0c102748 	jal	409d20 <__assert_fail>
  402c00:	240600d9 	li	a2,217

00402c04 <memory_destroy>:
  402c04:	27bdffd8 	addiu	sp,sp,-40
  402c08:	afb40020 	sw	s4,32(sp)
  402c0c:	afb20018 	sw	s2,24(sp)
  402c10:	afbf0024 	sw	ra,36(sp)
  402c14:	afb3001c 	sw	s3,28(sp)
  402c18:	afb10014 	sw	s1,20(sp)
  402c1c:	afb00010 	sw	s0,16(sp)
  402c20:	3c141000 	lui	s4,0x1000
  402c24:	8e8206c0 	lw	v0,1728(s4)
  402c28:	8c530004 	lw	s3,4(v0)
  402c2c:	1a600014 	blez	s3,402c80 <memory_destroy+0x7c>
  402c30:	00009021 	move	s2,zero
  402c34:	8e8606c0 	lw	a2,1728(s4)
  402c38:	00122880 	sll	a1,s2,0x2
  402c3c:	8cc40000 	lw	a0,0(a2)
  402c40:	00a41821 	addu	v1,a1,a0
  402c44:	8c710000 	lw	s1,0(v1)
  402c48:	8e300000 	lw	s0,0(s1)
  402c4c:	12000007 	beqz	s0,402c6c <memory_destroy+0x68>
  402c50:	26520001 	addiu	s2,s2,1
  402c54:	0c100a70 	jal	4029c0 <freeBlocks>
  402c58:	8e04002c 	lw	a0,44(s0)
  402c5c:	0c1080c0 	jal	420300 <__libc_free>
  402c60:	8e040028 	lw	a0,40(s0)
  402c64:	0c1080c0 	jal	420300 <__libc_free>
  402c68:	02002021 	move	a0,s0
  402c6c:	0c1080c0 	jal	420300 <__libc_free>
  402c70:	02202021 	move	a0,s1
  402c74:	0253382a 	slt	a3,s2,s3
  402c78:	14e0ffef 	bnez	a3,402c38 <memory_destroy+0x34>
  402c7c:	8e8606c0 	lw	a2,1728(s4)
  402c80:	8e8806c0 	lw	t0,1728(s4)
  402c84:	0c1080c0 	jal	420300 <__libc_free>
  402c88:	8d040000 	lw	a0,0(t0)
  402c8c:	8e8406c0 	lw	a0,1728(s4)
  402c90:	8fbf0024 	lw	ra,36(sp)
  402c94:	8fb40020 	lw	s4,32(sp)
  402c98:	8fb3001c 	lw	s3,28(sp)
  402c9c:	8fb20018 	lw	s2,24(sp)
  402ca0:	8fb10014 	lw	s1,20(sp)
  402ca4:	8fb00010 	lw	s0,16(sp)
  402ca8:	081080c0 	j	420300 <__libc_free>
  402cac:	27bd0028 	addiu	sp,sp,40

00402cb0 <memory_get>:
  402cb0:	3c081000 	lui	t0,0x1000
  402cb4:	8d0306c0 	lw	v1,1728(t0)
  402cb8:	27bdffd8 	addiu	sp,sp,-40
  402cbc:	afb3001c 	sw	s3,28(sp)
  402cc0:	afbf0024 	sw	ra,36(sp)
  402cc4:	afb40020 	sw	s4,32(sp)
  402cc8:	afb20018 	sw	s2,24(sp)
  402ccc:	afb10014 	sw	s1,20(sp)
  402cd0:	afb00010 	sw	s0,16(sp)
  402cd4:	8c670000 	lw	a3,0(v1)
  402cd8:	00043080 	sll	a2,a0,0x2
  402cdc:	24b30007 	addiu	s3,a1,7
  402ce0:	00c72021 	addu	a0,a2,a3
  402ce4:	8c920000 	lw	s2,0(a0)
  402ce8:	8e460000 	lw	a2,0(s2)
  402cec:	8cc40020 	lw	a0,32(a2)
  402cf0:	8cc30024 	lw	v1,36(a2)
  402cf4:	00932821 	addu	a1,a0,s3
  402cf8:	0065102b 	sltu	v0,v1,a1
  402cfc:	1040001d 	beqz	v0,402d74 <memory_get+0xc4>
  402d00:	0065782b 	sltu	t7,v1,a1
  402d04:	8e510004 	lw	s1,4(s2)
  402d08:	0233482b 	sltu	t1,s1,s3
  402d0c:	1520002a 	bnez	t1,402db8 <memory_get+0x108>
  402d10:	8e54000c 	lw	s4,12(s2)
  402d14:	12200035 	beqz	s1,402dec <memory_get+0x13c>
  402d18:	3c0c0046 	lui	t4,0x46
  402d1c:	0c107eec 	jal	41fbb0 <__libc_malloc>
  402d20:	24040050 	li	a0,80
  402d24:	10400028 	beqz	v0,402dc8 <memory_get+0x118>
  402d28:	00408021 	move	s0,v0
  402d2c:	26240001 	addiu	a0,s1,1
  402d30:	ac400020 	sw	zero,32(v0)
  402d34:	0c107eec 	jal	41fbb0 <__libc_malloc>
  402d38:	ac510024 	sw	s1,36(v0)
  402d3c:	10400022 	beqz	v0,402dc8 <memory_get+0x118>
  402d40:	ae020028 	sw	v0,40(s0)
  402d44:	02340018 	mult	s1,s4
  402d48:	ae00002c 	sw	zero,44(s0)
  402d4c:	8e4e0000 	lw	t6,0(s2)
  402d50:	02003021 	move	a2,s0
  402d54:	ae0e002c 	sw	t6,44(s0)
  402d58:	ae500000 	sw	s0,0(s2)
  402d5c:	00006812 	mflo	t5
  402d60:	ae4d0004 	sw	t5,4(s2)
  402d64:	8e040020 	lw	a0,32(s0)
  402d68:	8e030024 	lw	v1,36(s0)
  402d6c:	00932821 	addu	a1,a0,s3
  402d70:	0065782b 	sltu	t7,v1,a1
  402d74:	15e00016 	bnez	t7,402dd0 <memory_get+0x120>
  402d78:	3c120046 	lui	s2,0x46
  402d7c:	8cd30028 	lw	s3,40(a2)
  402d80:	acc50020 	sw	a1,32(a2)
  402d84:	02641021 	addu	v0,s3,a0
  402d88:	30430007 	andi	v1,v0,0x7
  402d8c:	10600003 	beqz	v1,402d9c <memory_get+0xec>
  402d90:	8fbf0024 	lw	ra,36(sp)
  402d94:	0043a023 	subu	s4,v0,v1
  402d98:	26820008 	addiu	v0,s4,8
  402d9c:	8fb40020 	lw	s4,32(sp)
  402da0:	8fb3001c 	lw	s3,28(sp)
  402da4:	8fb20018 	lw	s2,24(sp)
  402da8:	8fb10014 	lw	s1,20(sp)
  402dac:	8fb00010 	lw	s0,16(sp)
  402db0:	03e00008 	jr	ra
  402db4:	27bd0028 	addiu	sp,sp,40
  402db8:	02740018 	mult	s3,s4
  402dbc:	00008812 	mflo	s1
  402dc0:	08100b45 	j	402d14 <memory_get+0x64>
  402dc4:	00000000 	nop
  402dc8:	08100b62 	j	402d88 <memory_get+0xd8>
  402dcc:	00001021 	move	v0,zero
  402dd0:	3c110046 	lui	s1,0x46
  402dd4:	3c100046 	lui	s0,0x46
  402dd8:	26447210 	addiu	a0,s2,29200
  402ddc:	262571f0 	addiu	a1,s1,29168
  402de0:	260771c8 	addiu	a3,s0,29128
  402de4:	0c102748 	jal	409d20 <__assert_fail>
  402de8:	2406012c 	li	a2,300
  402dec:	3c0b0046 	lui	t3,0x46
  402df0:	3c0a0046 	lui	t2,0x46
  402df4:	258471e0 	addiu	a0,t4,29152
  402df8:	256571f0 	addiu	a1,t3,29168
  402dfc:	254771bc 	addiu	a3,t2,29116
  402e00:	0c102748 	jal	409d20 <__assert_fail>
  402e04:	24060076 	li	a2,118
	...

00402e10 <thread_startup>:
  402e10:	03e00008 	jr	ra
  402e14:	00000000 	nop

00402e18 <thread_start>:
  402e18:	03e00008 	jr	ra
  402e1c:	00000000 	nop

00402e20 <thread_shutdown>:
  402e20:	03e00008 	jr	ra
  402e24:	00000000 	nop

00402e28 <thread_barrier_alloc>:
  402e28:	03e00008 	jr	ra
  402e2c:	00000000 	nop

00402e30 <thread_barrier_free>:
  402e30:	081080c0 	j	420300 <__libc_free>
  402e34:	00000000 	nop

00402e38 <thread_barrier_init>:
  402e38:	03e00008 	jr	ra
  402e3c:	00000000 	nop

00402e40 <thread_barrier>:
  402e40:	03e00008 	jr	ra
  402e44:	00000000 	nop

00402e48 <thread_getId>:
  402e48:	08100248 	j	400920 <sesc_self>
  402e4c:	00000000 	nop

00402e50 <thread_getNumThread>:
  402e50:	3c030049 	lui	v1,0x49
  402e54:	03e00008 	jr	ra
  402e58:	8c62a9d0 	lw	v0,-22064(v1)

00402e5c <thread_barrier_wait>:
  402e5c:	03e00008 	jr	ra
  402e60:	00000000 	nop

00402e64 <set_global_numThread>:
  402e64:	3c020049 	lui	v0,0x49
  402e68:	03e00008 	jr	ra
  402e6c:	ac44a9d0 	sw	a0,-22064(v0)

00402e70 <__pow>:
  402e70:	27bdffc0 	addiu	sp,sp,-64
  402e74:	f7ba0038 	sdc1	$f26,56(sp)
  402e78:	f7b80030 	sdc1	$f24,48(sp)
  402e7c:	f7b40020 	sdc1	$f20,32(sp)
  402e80:	afbf0018 	sw	ra,24(sp)
  402e84:	f7b60028 	sdc1	$f22,40(sp)
  402e88:	46206686 	mov.d	$f26,$f12
  402e8c:	0c101721 	jal	405c84 <__ieee754_pow>
  402e90:	46207606 	mov.d	$f24,$f14
  402e94:	3c020049 	lui	v0,0x49
  402e98:	8c44a9e0 	lw	a0,-22048(v0)
  402e9c:	2403ffff 	li	v1,-1
  402ea0:	10830005 	beq	a0,v1,402eb8 <__pow+0x48>
  402ea4:	46200506 	mov.d	$f20,$f0
  402ea8:	0c100c34 	jal	4030d0 <__isnan>
  402eac:	4620c306 	mov.d	$f12,$f24
  402eb0:	1040000a 	beqz	v0,402edc <__pow+0x6c>
  402eb4:	00000000 	nop
  402eb8:	4620a306 	mov.d	$f12,$f20
  402ebc:	8fbf0018 	lw	ra,24(sp)
  402ec0:	d7ba0038 	ldc1	$f26,56(sp)
  402ec4:	d7b80030 	ldc1	$f24,48(sp)
  402ec8:	d7b60028 	ldc1	$f22,40(sp)
  402ecc:	d7b40020 	ldc1	$f20,32(sp)
  402ed0:	46206006 	mov.d	$f0,$f12
  402ed4:	03e00008 	jr	ra
  402ed8:	27bd0040 	addiu	sp,sp,64
  402edc:	0c100c34 	jal	4030d0 <__isnan>
  402ee0:	4620d306 	mov.d	$f12,$f26
  402ee4:	1440002a 	bnez	v0,402f90 <__pow+0x120>
  402ee8:	00000000 	nop
  402eec:	4480b000 	mtc1	zero,$f22
  402ef0:	00000000 	nop
  402ef4:	4480b800 	mtc1	zero,$f23
  402ef8:	00000000 	nop
  402efc:	4636d032 	c.eq.d	$f26,$f22
  402f00:	00000000 	nop
  402f04:	45000031 	bc1f	402fcc <__pow+0x15c>
  402f08:	00000000 	nop
  402f0c:	4636c032 	c.eq.d	$f24,$f22
  402f10:	00000000 	nop
  402f14:	45010060 	bc1t	403098 <__pow+0x228>
  402f18:	4620d306 	mov.d	$f12,$f26
  402f1c:	0c100c44 	jal	403110 <__finite>
  402f20:	4620c306 	mov.d	$f12,$f24
  402f24:	1040ffe5 	beqz	v0,402ebc <__pow+0x4c>
  402f28:	4620a306 	mov.d	$f12,$f20
  402f2c:	4636c03c 	c.lt.d	$f24,$f22
  402f30:	00000000 	nop
  402f34:	4500ffe2 	bc1f	402ec0 <__pow+0x50>
  402f38:	8fbf0018 	lw	ra,24(sp)
  402f3c:	0c100c4c 	jal	403130 <__signbit>
  402f40:	4620d306 	mov.d	$f12,$f26
  402f44:	10400005 	beqz	v0,402f5c <__pow+0xec>
  402f48:	4620d306 	mov.d	$f12,$f26
  402f4c:	0c100c4c 	jal	403130 <__signbit>
  402f50:	4620a306 	mov.d	$f12,$f20
  402f54:	1440004a 	bnez	v0,403080 <__pow+0x210>
  402f58:	4620d306 	mov.d	$f12,$f26
  402f5c:	2402002b 	li	v0,43
  402f60:	4620c386 	mov.d	$f14,$f24
  402f64:	0c100c80 	jal	403200 <__kernel_standard>
  402f68:	afa20010 	sw	v0,16(sp)
  402f6c:	46200306 	mov.d	$f12,$f0
  402f70:	8fbf0018 	lw	ra,24(sp)
  402f74:	d7ba0038 	ldc1	$f26,56(sp)
  402f78:	d7b80030 	ldc1	$f24,48(sp)
  402f7c:	d7b60028 	ldc1	$f22,40(sp)
  402f80:	d7b40020 	ldc1	$f20,32(sp)
  402f84:	46206006 	mov.d	$f0,$f12
  402f88:	03e00008 	jr	ra
  402f8c:	27bd0040 	addiu	sp,sp,64
  402f90:	44800000 	mtc1	zero,$f0
  402f94:	00000000 	nop
  402f98:	44800800 	mtc1	zero,$f1
  402f9c:	00000000 	nop
  402fa0:	4620c032 	c.eq.d	$f24,$f0
  402fa4:	00000000 	nop
  402fa8:	4500ffc4 	bc1f	402ebc <__pow+0x4c>
  402fac:	4620a306 	mov.d	$f12,$f20
  402fb0:	4620d306 	mov.d	$f12,$f26
  402fb4:	2402002a 	li	v0,42
  402fb8:	4620c386 	mov.d	$f14,$f24
  402fbc:	0c100c80 	jal	403200 <__kernel_standard>
  402fc0:	afa20010 	sw	v0,16(sp)
  402fc4:	08100bdc 	j	402f70 <__pow+0x100>
  402fc8:	46200306 	mov.d	$f12,$f0
  402fcc:	0c100c44 	jal	403110 <__finite>
  402fd0:	4620a306 	mov.d	$f12,$f20
  402fd4:	14400013 	bnez	v0,403024 <__pow+0x1b4>
  402fd8:	00000000 	nop
  402fdc:	0c100c44 	jal	403110 <__finite>
  402fe0:	4620d306 	mov.d	$f12,$f26
  402fe4:	1040000f 	beqz	v0,403024 <__pow+0x1b4>
  402fe8:	00000000 	nop
  402fec:	0c100c44 	jal	403110 <__finite>
  402ff0:	4620c306 	mov.d	$f12,$f24
  402ff4:	1040000b 	beqz	v0,403024 <__pow+0x1b4>
  402ff8:	00000000 	nop
  402ffc:	0c100c34 	jal	4030d0 <__isnan>
  403000:	4620a306 	mov.d	$f12,$f20
  403004:	1040002a 	beqz	v0,4030b0 <__pow+0x240>
  403008:	4620d306 	mov.d	$f12,$f26
  40300c:	24020018 	li	v0,24
  403010:	4620c386 	mov.d	$f14,$f24
  403014:	0c100c80 	jal	403200 <__kernel_standard>
  403018:	afa20010 	sw	v0,16(sp)
  40301c:	08100bdc 	j	402f70 <__pow+0x100>
  403020:	46200306 	mov.d	$f12,$f0
  403024:	44800000 	mtc1	zero,$f0
  403028:	00000000 	nop
  40302c:	44800800 	mtc1	zero,$f1
  403030:	00000000 	nop
  403034:	4620a032 	c.eq.d	$f20,$f0
  403038:	00000000 	nop
  40303c:	4500ff9f 	bc1f	402ebc <__pow+0x4c>
  403040:	4620a306 	mov.d	$f12,$f20
  403044:	0c100c44 	jal	403110 <__finite>
  403048:	4620d306 	mov.d	$f12,$f26
  40304c:	1040ff9b 	beqz	v0,402ebc <__pow+0x4c>
  403050:	4620a306 	mov.d	$f12,$f20
  403054:	0c100c44 	jal	403110 <__finite>
  403058:	4620c306 	mov.d	$f12,$f24
  40305c:	5040ff97 	beqzl	v0,402ebc <__pow+0x4c>
  403060:	4620a306 	mov.d	$f12,$f20
  403064:	4620d306 	mov.d	$f12,$f26
  403068:	24020016 	li	v0,22
  40306c:	4620c386 	mov.d	$f14,$f24
  403070:	0c100c80 	jal	403200 <__kernel_standard>
  403074:	afa20010 	sw	v0,16(sp)
  403078:	08100bdc 	j	402f70 <__pow+0x100>
  40307c:	46200306 	mov.d	$f12,$f0
  403080:	24020017 	li	v0,23
  403084:	4620c386 	mov.d	$f14,$f24
  403088:	0c100c80 	jal	403200 <__kernel_standard>
  40308c:	afa20010 	sw	v0,16(sp)
  403090:	08100bdc 	j	402f70 <__pow+0x100>
  403094:	46200306 	mov.d	$f12,$f0
  403098:	24020014 	li	v0,20
  40309c:	4620c386 	mov.d	$f14,$f24
  4030a0:	0c100c80 	jal	403200 <__kernel_standard>
  4030a4:	afa20010 	sw	v0,16(sp)
  4030a8:	08100bdc 	j	402f70 <__pow+0x100>
  4030ac:	46200306 	mov.d	$f12,$f0
  4030b0:	24020015 	li	v0,21
  4030b4:	4620c386 	mov.d	$f14,$f24
  4030b8:	0c100c80 	jal	403200 <__kernel_standard>
  4030bc:	afa20010 	sw	v0,16(sp)
  4030c0:	08100bdc 	j	402f70 <__pow+0x100>
  4030c4:	46200306 	mov.d	$f12,$f0
	...

004030d0 <__isnan>:
  4030d0:	44056000 	mfc1	a1,$f12
  4030d4:	44046800 	mfc1	a0,$f13
  4030d8:	00051823 	negu	v1,a1
  4030dc:	3c027fff 	lui	v0,0x7fff
  4030e0:	00651825 	or	v1,v1,a1
  4030e4:	3442ffff 	ori	v0,v0,0xffff
  4030e8:	00441024 	and	v0,v0,a0
  4030ec:	00031fc2 	srl	v1,v1,0x1f
  4030f0:	00431025 	or	v0,v0,v1
  4030f4:	3c047ff0 	lui	a0,0x7ff0
  4030f8:	00821023 	subu	v0,a0,v0
  4030fc:	03e00008 	jr	ra
  403100:	000217c2 	srl	v0,v0,0x1f
	...

00403110 <__finite>:
  403110:	44046800 	mfc1	a0,$f13
  403114:	3c027fff 	lui	v0,0x7fff
  403118:	3442ffff 	ori	v0,v0,0xffff
  40311c:	00441024 	and	v0,v0,a0
  403120:	3c038010 	lui	v1,0x8010
  403124:	00431021 	addu	v0,v0,v1
  403128:	03e00008 	jr	ra
  40312c:	000217c2 	srl	v0,v0,0x1f

00403130 <__signbit>:
  403130:	44026800 	mfc1	v0,$f13
  403134:	3c048000 	lui	a0,0x8000
  403138:	03e00008 	jr	ra
  40313c:	00821024 	and	v0,a0,v0

00403140 <__sqrtf>:
  403140:	27bdffd0 	addiu	sp,sp,-48
  403144:	f7b60028 	sdc1	$f22,40(sp)
  403148:	f7b40020 	sdc1	$f20,32(sp)
  40314c:	afbf0018 	sw	ra,24(sp)
  403150:	0c101bdc 	jal	406f70 <__ieee754_sqrtf>
  403154:	46006506 	mov.s	$f20,$f12
  403158:	3c020049 	lui	v0,0x49
  40315c:	8c43a9e0 	lw	v1,-22048(v0)
  403160:	2402ffff 	li	v0,-1
  403164:	46000586 	mov.s	$f22,$f0
  403168:	10620005 	beq	v1,v0,403180 <__sqrtf+0x40>
  40316c:	4600a306 	mov.s	$f12,$f20
  403170:	0c100c78 	jal	4031e0 <__isnanf>
  403174:	00000000 	nop
  403178:	10400007 	beqz	v0,403198 <__sqrtf+0x58>
  40317c:	00000000 	nop
  403180:	4600b006 	mov.s	$f0,$f22
  403184:	8fbf0018 	lw	ra,24(sp)
  403188:	d7b60028 	ldc1	$f22,40(sp)
  40318c:	d7b40020 	ldc1	$f20,32(sp)
  403190:	03e00008 	jr	ra
  403194:	27bd0030 	addiu	sp,sp,48
  403198:	44800000 	mtc1	zero,$f0
  40319c:	00000000 	nop
  4031a0:	4600a03c 	c.lt.s	$f20,$f0
  4031a4:	00000000 	nop
  4031a8:	4500fff6 	bc1f	403184 <__sqrtf+0x44>
  4031ac:	4600b006 	mov.s	$f0,$f22
  4031b0:	4600a321 	cvt.d.s	$f12,$f20
  4031b4:	2402007e 	li	v0,126
  4031b8:	46206386 	mov.d	$f14,$f12
  4031bc:	0c100c80 	jal	403200 <__kernel_standard>
  4031c0:	afa20010 	sw	v0,16(sp)
  4031c4:	8fbf0018 	lw	ra,24(sp)
  4031c8:	d7b60028 	ldc1	$f22,40(sp)
  4031cc:	d7b40020 	ldc1	$f20,32(sp)
  4031d0:	46200020 	cvt.s.d	$f0,$f0
  4031d4:	03e00008 	jr	ra
  4031d8:	27bd0030 	addiu	sp,sp,48
  4031dc:	00000000 	nop

004031e0 <__isnanf>:
  4031e0:	44046000 	mfc1	a0,$f12
  4031e4:	3c037fff 	lui	v1,0x7fff
  4031e8:	3463ffff 	ori	v1,v1,0xffff
  4031ec:	00831024 	and	v0,a0,v1
  4031f0:	3c047f80 	lui	a0,0x7f80
  4031f4:	00821023 	subu	v0,a0,v0
  4031f8:	03e00008 	jr	ra
  4031fc:	000217c2 	srl	v0,v0,0x1f

00403200 <__kernel_standard>:
  403200:	27bdffb8 	addiu	sp,sp,-72
  403204:	8fa50058 	lw	a1,88(sp)
  403208:	f7b40038 	sdc1	$f20,56(sp)
  40320c:	afbf0034 	sw	ra,52(sp)
  403210:	2ca200fa 	sltiu	v0,a1,250
  403214:	afb00030 	sw	s0,48(sp)
  403218:	f7b60040 	sdc1	$f22,64(sp)
  40321c:	46206086 	mov.d	$f2,$f12
  403220:	10400008 	beqz	v0,403244 <__kernel_standard+0x44>
  403224:	46207506 	mov.d	$f20,$f14
  403228:	3c030046 	lui	v1,0x46
  40322c:	00051080 	sll	v0,a1,0x2
  403230:	24637244 	addiu	v1,v1,29252
  403234:	00431021 	addu	v0,v0,v1
  403238:	8c440000 	lw	a0,0(v0)
  40323c:	00800008 	jr	a0
  403240:	00000000 	nop
  403244:	d7b60028 	ldc1	$f22,40(sp)
  403248:	f7ac0018 	sdc1	$f12,24(sp)
  40324c:	f7ae0020 	sdc1	$f14,32(sp)
  403250:	4620b006 	mov.d	$f0,$f22
  403254:	8fbf0034 	lw	ra,52(sp)
  403258:	8fb00030 	lw	s0,48(sp)
  40325c:	d7b60040 	ldc1	$f22,64(sp)
  403260:	d7b40038 	ldc1	$f20,56(sp)
  403264:	03e00008 	jr	ra
  403268:	27bd0048 	addiu	sp,sp,72
  40326c:	24030001 	li	v1,1
  403270:	3c040046 	lui	a0,0x46
  403274:	28a20064 	slti	v0,a1,100
  403278:	f7ac0018 	sdc1	$f12,24(sp)
  40327c:	f7ae0020 	sdc1	$f14,32(sp)
  403280:	afa30010 	sw	v1,16(sp)
  403284:	14400007 	bnez	v0,4032a4 <__kernel_standard+0xa4>
  403288:	24847630 	addiu	a0,a0,30256
  40328c:	3c020046 	lui	v0,0x46
  403290:	28a300c8 	slti	v1,a1,200
  403294:	14600003 	bnez	v1,4032a4 <__kernel_standard+0xa4>
  403298:	24447638 	addiu	a0,v0,30264
  40329c:	3c020046 	lui	v0,0x46
  4032a0:	24447640 	addiu	a0,v0,30272
  4032a4:	3c030049 	lui	v1,0x49
  4032a8:	8c62a9e0 	lw	v0,-22048(v1)
  4032ac:	14400806 	bnez	v0,4052c8 <__kernel_standard+0x20c8>
  4032b0:	afa40014 	sw	a0,20(sp)
  4032b4:	3c020046 	lui	v0,0x46
  4032b8:	d4567aa8 	ldc1	$f22,31400(v0)
  4032bc:	3c020049 	lui	v0,0x49
  4032c0:	8c43a9e0 	lw	v1,-22048(v0)
  4032c4:	24020002 	li	v0,2
  4032c8:	f7b60028 	sdc1	$f22,40(sp)
  4032cc:	14620642 	bne	v1,v0,404bd8 <__kernel_standard+0x19d8>
  4032d0:	00000000 	nop
  4032d4:	0c102738 	jal	409ce0 <__errno_location>
  4032d8:	00000000 	nop
  4032dc:	24030021 	li	v1,33
  4032e0:	08100c94 	j	403250 <__kernel_standard+0x50>
  4032e4:	ac430000 	sw	v1,0(v0)
  4032e8:	24030002 	li	v1,2
  4032ec:	3c040046 	lui	a0,0x46
  4032f0:	28a20064 	slti	v0,a1,100
  4032f4:	f7ac0018 	sdc1	$f12,24(sp)
  4032f8:	f7ae0020 	sdc1	$f14,32(sp)
  4032fc:	afa30010 	sw	v1,16(sp)
  403300:	14400007 	bnez	v0,403320 <__kernel_standard+0x120>
  403304:	24847630 	addiu	a0,a0,30256
  403308:	3c020046 	lui	v0,0x46
  40330c:	28a300c8 	slti	v1,a1,200
  403310:	14600003 	bnez	v1,403320 <__kernel_standard+0x120>
  403314:	24447638 	addiu	a0,v0,30264
  403318:	3c020046 	lui	v0,0x46
  40331c:	24447640 	addiu	a0,v0,30272
  403320:	3c030049 	lui	v1,0x49
  403324:	8c62a9e0 	lw	v0,-22048(v1)
  403328:	144007ec 	bnez	v0,4052dc <__kernel_standard+0x20dc>
  40332c:	afa40014 	sw	a0,20(sp)
  403330:	3c020046 	lui	v0,0x46
  403334:	d4567aa8 	ldc1	$f22,31400(v0)
  403338:	3c020049 	lui	v0,0x49
  40333c:	8c43a9e0 	lw	v1,-22048(v0)
  403340:	24020002 	li	v0,2
  403344:	f7b60028 	sdc1	$f22,40(sp)
  403348:	1462063a 	bne	v1,v0,404c34 <__kernel_standard+0x1a34>
  40334c:	00000000 	nop
  403350:	0c102738 	jal	409ce0 <__errno_location>
  403354:	00000000 	nop
  403358:	24030022 	li	v1,34
  40335c:	08100c94 	j	403250 <__kernel_standard+0x50>
  403360:	ac430000 	sw	v1,0(v0)
  403364:	24030004 	li	v1,4
  403368:	3c040046 	lui	a0,0x46
  40336c:	28a20064 	slti	v0,a1,100
  403370:	f7ac0018 	sdc1	$f12,24(sp)
  403374:	f7ae0020 	sdc1	$f14,32(sp)
  403378:	afa30010 	sw	v1,16(sp)
  40337c:	14400007 	bnez	v0,40339c <__kernel_standard+0x19c>
  403380:	24867648 	addiu	a2,a0,30280
  403384:	3c020046 	lui	v0,0x46
  403388:	28a300c8 	slti	v1,a1,200
  40338c:	14600003 	bnez	v1,40339c <__kernel_standard+0x19c>
  403390:	24467650 	addiu	a2,v0,30288
  403394:	3c020046 	lui	v0,0x46
  403398:	24467658 	addiu	a2,v0,30296
  40339c:	3c021000 	lui	v0,0x1000
  4033a0:	3c030049 	lui	v1,0x49
  4033a4:	d4560008 	ldc1	$f22,8(v0)
  4033a8:	8c64a9e0 	lw	a0,-22048(v1)
  4033ac:	24020002 	li	v0,2
  4033b0:	afa60014 	sw	a2,20(sp)
  4033b4:	f7b60028 	sdc1	$f22,40(sp)
  4033b8:	148206cb 	bne	a0,v0,404ee8 <__kernel_standard+0x1ce8>
  4033bc:	00000000 	nop
  4033c0:	0c102738 	jal	409ce0 <__errno_location>
  4033c4:	00000000 	nop
  4033c8:	24030022 	li	v1,34
  4033cc:	08100c94 	j	403250 <__kernel_standard+0x50>
  4033d0:	ac430000 	sw	v1,0(v0)
  4033d4:	24030003 	li	v1,3
  4033d8:	3c040046 	lui	a0,0x46
  4033dc:	28a20064 	slti	v0,a1,100
  4033e0:	f7ac0018 	sdc1	$f12,24(sp)
  4033e4:	f7ae0020 	sdc1	$f14,32(sp)
  4033e8:	afa30010 	sw	v1,16(sp)
  4033ec:	14400007 	bnez	v0,40340c <__kernel_standard+0x20c>
  4033f0:	24847648 	addiu	a0,a0,30280
  4033f4:	3c020046 	lui	v0,0x46
  4033f8:	28a300c8 	slti	v1,a1,200
  4033fc:	14600003 	bnez	v1,40340c <__kernel_standard+0x20c>
  403400:	24447650 	addiu	a0,v0,30288
  403404:	3c020046 	lui	v0,0x46
  403408:	24447658 	addiu	a0,v0,30296
  40340c:	3c030049 	lui	v1,0x49
  403410:	8c62a9e0 	lw	v0,-22048(v1)
  403414:	144007ec 	bnez	v0,4053c8 <__kernel_standard+0x21c8>
  403418:	afa40014 	sw	a0,20(sp)
  40341c:	3c020046 	lui	v0,0x46
  403420:	d4567a98 	ldc1	$f22,31384(v0)
  403424:	3c020049 	lui	v0,0x49
  403428:	8c43a9e0 	lw	v1,-22048(v0)
  40342c:	24020002 	li	v0,2
  403430:	f7b60028 	sdc1	$f22,40(sp)
  403434:	146205d1 	bne	v1,v0,404b7c <__kernel_standard+0x197c>
  403438:	00000000 	nop
  40343c:	0c102738 	jal	409ce0 <__errno_location>
  403440:	00000000 	nop
  403444:	24030022 	li	v1,34
  403448:	08100c94 	j	403250 <__kernel_standard+0x50>
  40344c:	ac430000 	sw	v1,0(v0)
  403450:	24030005 	li	v1,5
  403454:	3c040046 	lui	a0,0x46
  403458:	28a20064 	slti	v0,a1,100
  40345c:	f7ac0018 	sdc1	$f12,24(sp)
  403460:	f7ae0020 	sdc1	$f14,32(sp)
  403464:	afa30010 	sw	v1,16(sp)
  403468:	14400007 	bnez	v0,403488 <__kernel_standard+0x288>
  40346c:	24847660 	addiu	a0,a0,30304
  403470:	3c020046 	lui	v0,0x46
  403474:	28a300c8 	slti	v1,a1,200
  403478:	14600003 	bnez	v1,403488 <__kernel_standard+0x288>
  40347c:	24447664 	addiu	a0,v0,30308
  403480:	3c020046 	lui	v0,0x46
  403484:	24447668 	addiu	a0,v0,30312
  403488:	3c021000 	lui	v0,0x1000
  40348c:	3c100049 	lui	s0,0x49
  403490:	d4560008 	ldc1	$f22,8(v0)
  403494:	8e03a9e0 	lw	v1,-22048(s0)
  403498:	24020002 	li	v0,2
  40349c:	afa40014 	sw	a0,20(sp)
  4034a0:	f7b60028 	sdc1	$f22,40(sp)
  4034a4:	1462069a 	bne	v1,v0,404f10 <__kernel_standard+0x1d10>
  4034a8:	00000000 	nop
  4034ac:	0c102738 	jal	409ce0 <__errno_location>
  4034b0:	00000000 	nop
  4034b4:	24030022 	li	v1,34
  4034b8:	08100c94 	j	403250 <__kernel_standard+0x50>
  4034bc:	ac430000 	sw	v1,0(v0)
  4034c0:	24030005 	li	v1,5
  4034c4:	3c040046 	lui	a0,0x46
  4034c8:	28a20064 	slti	v0,a1,100
  4034cc:	f7ac0018 	sdc1	$f12,24(sp)
  4034d0:	f7ae0020 	sdc1	$f14,32(sp)
  4034d4:	afa30010 	sw	v1,16(sp)
  4034d8:	14400007 	bnez	v0,4034f8 <__kernel_standard+0x2f8>
  4034dc:	2484766c 	addiu	a0,a0,30316
  4034e0:	3c020046 	lui	v0,0x46
  4034e4:	28a300c8 	slti	v1,a1,200
  4034e8:	14600003 	bnez	v1,4034f8 <__kernel_standard+0x2f8>
  4034ec:	24447670 	addiu	a0,v0,30320
  4034f0:	3c020046 	lui	v0,0x46
  4034f4:	24447674 	addiu	a0,v0,30324
  4034f8:	3c021000 	lui	v0,0x1000
  4034fc:	3c100049 	lui	s0,0x49
  403500:	d4560008 	ldc1	$f22,8(v0)
  403504:	8e03a9e0 	lw	v1,-22048(s0)
  403508:	24020002 	li	v0,2
  40350c:	afa40014 	sw	a0,20(sp)
  403510:	f7b60028 	sdc1	$f22,40(sp)
  403514:	1462062e 	bne	v1,v0,404dd0 <__kernel_standard+0x1bd0>
  403518:	00000000 	nop
  40351c:	0c102738 	jal	409ce0 <__errno_location>
  403520:	00000000 	nop
  403524:	24030022 	li	v1,34
  403528:	08100c94 	j	403250 <__kernel_standard+0x50>
  40352c:	ac430000 	sw	v1,0(v0)
  403530:	24030001 	li	v1,1
  403534:	3c040046 	lui	a0,0x46
  403538:	28a20064 	slti	v0,a1,100
  40353c:	f7ac0018 	sdc1	$f12,24(sp)
  403540:	f7ae0020 	sdc1	$f14,32(sp)
  403544:	afa30010 	sw	v1,16(sp)
  403548:	14400007 	bnez	v0,403568 <__kernel_standard+0x368>
  40354c:	24847678 	addiu	a0,a0,30328
  403550:	3c020046 	lui	v0,0x46
  403554:	28a300c8 	slti	v1,a1,200
  403558:	14600003 	bnez	v1,403568 <__kernel_standard+0x368>
  40355c:	2444767c 	addiu	a0,v0,30332
  403560:	3c020046 	lui	v0,0x46
  403564:	24447684 	addiu	a0,v0,30340
  403568:	3c030049 	lui	v1,0x49
  40356c:	8c62a9e0 	lw	v0,-22048(v1)
  403570:	14400762 	bnez	v0,4052fc <__kernel_standard+0x20fc>
  403574:	afa40014 	sw	a0,20(sp)
  403578:	3c021000 	lui	v0,0x1000
  40357c:	d4560008 	ldc1	$f22,8(v0)
  403580:	3c020049 	lui	v0,0x49
  403584:	8c43a9e0 	lw	v1,-22048(v0)
  403588:	24020002 	li	v0,2
  40358c:	f7b60028 	sdc1	$f22,40(sp)
  403590:	146205d5 	bne	v1,v0,404ce8 <__kernel_standard+0x1ae8>
  403594:	00000000 	nop
  403598:	0c102738 	jal	409ce0 <__errno_location>
  40359c:	00000000 	nop
  4035a0:	24030021 	li	v1,33
  4035a4:	08100c94 	j	403250 <__kernel_standard+0x50>
  4035a8:	ac430000 	sw	v1,0(v0)
  4035ac:	24030005 	li	v1,5
  4035b0:	3c040046 	lui	a0,0x46
  4035b4:	28a20064 	slti	v0,a1,100
  4035b8:	f7ac0018 	sdc1	$f12,24(sp)
  4035bc:	f7ae0020 	sdc1	$f14,32(sp)
  4035c0:	afa30010 	sw	v1,16(sp)
  4035c4:	14400007 	bnez	v0,4035e4 <__kernel_standard+0x3e4>
  4035c8:	2484768c 	addiu	a0,a0,30348
  4035cc:	3c020046 	lui	v0,0x46
  4035d0:	28a300c8 	slti	v1,a1,200
  4035d4:	14600003 	bnez	v1,4035e4 <__kernel_standard+0x3e4>
  4035d8:	24447690 	addiu	a0,v0,30352
  4035dc:	3c020046 	lui	v0,0x46
  4035e0:	24447694 	addiu	a0,v0,30356
  4035e4:	3c021000 	lui	v0,0x1000
  4035e8:	3c100049 	lui	s0,0x49
  4035ec:	d4560008 	ldc1	$f22,8(v0)
  4035f0:	8e03a9e0 	lw	v1,-22048(s0)
  4035f4:	24020002 	li	v0,2
  4035f8:	afa40014 	sw	a0,20(sp)
  4035fc:	f7b60028 	sdc1	$f22,40(sp)
  403600:	146205d3 	bne	v1,v0,404d50 <__kernel_standard+0x1b50>
  403604:	00000000 	nop
  403608:	0c102738 	jal	409ce0 <__errno_location>
  40360c:	00000000 	nop
  403610:	24030022 	li	v1,34
  403614:	08100c94 	j	403250 <__kernel_standard+0x50>
  403618:	ac430000 	sw	v1,0(v0)
  40361c:	24030005 	li	v1,5
  403620:	3c040046 	lui	a0,0x46
  403624:	28a20064 	slti	v0,a1,100
  403628:	f7ac0018 	sdc1	$f12,24(sp)
  40362c:	f7ae0020 	sdc1	$f14,32(sp)
  403630:	afa30010 	sw	v1,16(sp)
  403634:	14400007 	bnez	v0,403654 <__kernel_standard+0x454>
  403638:	24847698 	addiu	a0,a0,30360
  40363c:	3c020046 	lui	v0,0x46
  403640:	28a300c8 	slti	v1,a1,200
  403644:	14600003 	bnez	v1,403654 <__kernel_standard+0x454>
  403648:	2444769c 	addiu	a0,v0,30364
  40364c:	3c020046 	lui	v0,0x46
  403650:	244476a0 	addiu	a0,v0,30368
  403654:	3c021000 	lui	v0,0x1000
  403658:	3c100049 	lui	s0,0x49
  40365c:	d4560008 	ldc1	$f22,8(v0)
  403660:	8e03a9e0 	lw	v1,-22048(s0)
  403664:	24020002 	li	v0,2
  403668:	afa40014 	sw	a0,20(sp)
  40366c:	f7b60028 	sdc1	$f22,40(sp)
  403670:	14620640 	bne	v1,v0,404f74 <__kernel_standard+0x1d74>
  403674:	00000000 	nop
  403678:	0c102738 	jal	409ce0 <__errno_location>
  40367c:	00000000 	nop
  403680:	24030022 	li	v1,34
  403684:	08100c94 	j	403250 <__kernel_standard+0x50>
  403688:	ac430000 	sw	v1,0(v0)
  40368c:	24030004 	li	v1,4
  403690:	3c040046 	lui	a0,0x46
  403694:	28a20064 	slti	v0,a1,100
  403698:	f7ac0018 	sdc1	$f12,24(sp)
  40369c:	f7ae0020 	sdc1	$f14,32(sp)
  4036a0:	afa30010 	sw	v1,16(sp)
  4036a4:	14400007 	bnez	v0,4036c4 <__kernel_standard+0x4c4>
  4036a8:	248676a4 	addiu	a2,a0,30372
  4036ac:	3c020046 	lui	v0,0x46
  4036b0:	28a300c8 	slti	v1,a1,200
  4036b4:	14600003 	bnez	v1,4036c4 <__kernel_standard+0x4c4>
  4036b8:	244676ac 	addiu	a2,v0,30380
  4036bc:	3c020046 	lui	v0,0x46
  4036c0:	244676b4 	addiu	a2,v0,30388
  4036c4:	3c021000 	lui	v0,0x1000
  4036c8:	3c030049 	lui	v1,0x49
  4036cc:	d4560008 	ldc1	$f22,8(v0)
  4036d0:	8c64a9e0 	lw	a0,-22048(v1)
  4036d4:	24020002 	li	v0,2
  4036d8:	afa60014 	sw	a2,20(sp)
  4036dc:	f7b60028 	sdc1	$f22,40(sp)
  4036e0:	148205a7 	bne	a0,v0,404d80 <__kernel_standard+0x1b80>
  4036e4:	00000000 	nop
  4036e8:	0c102738 	jal	409ce0 <__errno_location>
  4036ec:	00000000 	nop
  4036f0:	24030022 	li	v1,34
  4036f4:	08100c94 	j	403250 <__kernel_standard+0x50>
  4036f8:	ac430000 	sw	v1,0(v0)
  4036fc:	24030005 	li	v1,5
  403700:	3c040046 	lui	a0,0x46
  403704:	28a20064 	slti	v0,a1,100
  403708:	f7ac0018 	sdc1	$f12,24(sp)
  40370c:	f7ae0020 	sdc1	$f14,32(sp)
  403710:	afa30010 	sw	v1,16(sp)
  403714:	14400007 	bnez	v0,403734 <__kernel_standard+0x534>
  403718:	248476bc 	addiu	a0,a0,30396
  40371c:	3c020046 	lui	v0,0x46
  403720:	28a300c8 	slti	v1,a1,200
  403724:	14600003 	bnez	v1,403734 <__kernel_standard+0x534>
  403728:	244476c0 	addiu	a0,v0,30400
  40372c:	3c020046 	lui	v0,0x46
  403730:	244476c4 	addiu	a0,v0,30404
  403734:	3c021000 	lui	v0,0x1000
  403738:	3c100049 	lui	s0,0x49
  40373c:	d4560008 	ldc1	$f22,8(v0)
  403740:	8e03a9e0 	lw	v1,-22048(s0)
  403744:	24020002 	li	v0,2
  403748:	afa40014 	sw	a0,20(sp)
  40374c:	f7b60028 	sdc1	$f22,40(sp)
  403750:	1462054c 	bne	v1,v0,404c84 <__kernel_standard+0x1a84>
  403754:	00000000 	nop
  403758:	0c102738 	jal	409ce0 <__errno_location>
  40375c:	00000000 	nop
  403760:	24030022 	li	v1,34
  403764:	08100c94 	j	403250 <__kernel_standard+0x50>
  403768:	ac430000 	sw	v1,0(v0)
  40376c:	24030002 	li	v1,2
  403770:	3c040046 	lui	a0,0x46
  403774:	28a20064 	slti	v0,a1,100
  403778:	f7ac0018 	sdc1	$f12,24(sp)
  40377c:	f7ae0020 	sdc1	$f14,32(sp)
  403780:	afa30010 	sw	v1,16(sp)
  403784:	14400007 	bnez	v0,4037a4 <__kernel_standard+0x5a4>
  403788:	248476c8 	addiu	a0,a0,30408
  40378c:	3c020046 	lui	v0,0x46
  403790:	28a300c8 	slti	v1,a1,200
  403794:	14600003 	bnez	v1,4037a4 <__kernel_standard+0x5a4>
  403798:	244476d0 	addiu	a0,v0,30416
  40379c:	3c020046 	lui	v0,0x46
  4037a0:	244476d8 	addiu	a0,v0,30424
  4037a4:	3c027fbf 	lui	v0,0x7fbf
  4037a8:	3442ffff 	ori	v0,v0,0xffff
  4037ac:	3c100049 	lui	s0,0x49
  4037b0:	44820000 	mtc1	v0,$f0
  4037b4:	8e03a9e0 	lw	v1,-22048(s0)
  4037b8:	460005a1 	cvt.d.s	$f22,$f0
  4037bc:	24020002 	li	v0,2
  4037c0:	afa40014 	sw	a0,20(sp)
  4037c4:	f7b60028 	sdc1	$f22,40(sp)
  4037c8:	14620621 	bne	v1,v0,405050 <__kernel_standard+0x1e50>
  4037cc:	00000000 	nop
  4037d0:	0c102738 	jal	409ce0 <__errno_location>
  4037d4:	00000000 	nop
  4037d8:	24030021 	li	v1,33
  4037dc:	08100c94 	j	403250 <__kernel_standard+0x50>
  4037e0:	ac430000 	sw	v1,0(v0)
  4037e4:	24030004 	li	v1,4
  4037e8:	afa30010 	sw	v1,16(sp)
  4037ec:	28a20064 	slti	v0,a1,100
  4037f0:	3c030046 	lui	v1,0x46
  4037f4:	f7ae0020 	sdc1	$f14,32(sp)
  4037f8:	f7ac0018 	sdc1	$f12,24(sp)
  4037fc:	14400007 	bnez	v0,40381c <__kernel_standard+0x61c>
  403800:	246476e0 	addiu	a0,v1,30432
  403804:	3c020046 	lui	v0,0x46
  403808:	28a300c8 	slti	v1,a1,200
  40380c:	14600003 	bnez	v1,40381c <__kernel_standard+0x61c>
  403810:	244476e8 	addiu	a0,v0,30440
  403814:	3c020046 	lui	v0,0x46
  403818:	244476f0 	addiu	a0,v0,30448
  40381c:	3c021000 	lui	v0,0x1000
  403820:	d44c0008 	ldc1	$f12,8(v0)
  403824:	46201386 	mov.d	$f14,$f2
  403828:	0c101bcc 	jal	406f30 <__copysign>
  40382c:	afa40014 	sw	a0,20(sp)
  403830:	3c020049 	lui	v0,0x49
  403834:	8c43a9e0 	lw	v1,-22048(v0)
  403838:	24020002 	li	v0,2
  40383c:	f7a00028 	sdc1	$f0,40(sp)
  403840:	146205d8 	bne	v1,v0,404fa4 <__kernel_standard+0x1da4>
  403844:	46200586 	mov.d	$f22,$f0
  403848:	0c102738 	jal	409ce0 <__errno_location>
  40384c:	00000000 	nop
  403850:	24030022 	li	v1,34
  403854:	08100c94 	j	403250 <__kernel_standard+0x50>
  403858:	ac430000 	sw	v1,0(v0)
  40385c:	24030003 	li	v1,3
  403860:	3c040046 	lui	a0,0x46
  403864:	28a20064 	slti	v0,a1,100
  403868:	f7ac0018 	sdc1	$f12,24(sp)
  40386c:	f7ae0020 	sdc1	$f14,32(sp)
  403870:	afa30010 	sw	v1,16(sp)
  403874:	14400007 	bnez	v0,403894 <__kernel_standard+0x694>
  403878:	248476a4 	addiu	a0,a0,30372
  40387c:	3c020046 	lui	v0,0x46
  403880:	28a300c8 	slti	v1,a1,200
  403884:	14600003 	bnez	v1,403894 <__kernel_standard+0x694>
  403888:	244476ac 	addiu	a0,v0,30380
  40388c:	3c020046 	lui	v0,0x46
  403890:	244476b4 	addiu	a0,v0,30388
  403894:	3c030049 	lui	v1,0x49
  403898:	8c62a9e0 	lw	v0,-22048(v1)
  40389c:	14400673 	bnez	v0,40526c <__kernel_standard+0x206c>
  4038a0:	afa40014 	sw	a0,20(sp)
  4038a4:	3c020046 	lui	v0,0x46
  4038a8:	d4567a98 	ldc1	$f22,31384(v0)
  4038ac:	3c020049 	lui	v0,0x49
  4038b0:	8c43a9e0 	lw	v1,-22048(v0)
  4038b4:	24020002 	li	v0,2
  4038b8:	f7b60028 	sdc1	$f22,40(sp)
  4038bc:	14620573 	bne	v1,v0,404e8c <__kernel_standard+0x1c8c>
  4038c0:	00000000 	nop
  4038c4:	0c102738 	jal	409ce0 <__errno_location>
  4038c8:	00000000 	nop
  4038cc:	24030022 	li	v1,34
  4038d0:	08100c94 	j	403250 <__kernel_standard+0x50>
  4038d4:	ac430000 	sw	v1,0(v0)
  4038d8:	24030005 	li	v1,5
  4038dc:	3c040046 	lui	a0,0x46
  4038e0:	28a20064 	slti	v0,a1,100
  4038e4:	f7ac0018 	sdc1	$f12,24(sp)
  4038e8:	f7ae0020 	sdc1	$f14,32(sp)
  4038ec:	afa30010 	sw	v1,16(sp)
  4038f0:	14400007 	bnez	v0,403910 <__kernel_standard+0x710>
  4038f4:	248476f8 	addiu	a0,a0,30456
  4038f8:	3c020046 	lui	v0,0x46
  4038fc:	28a300c8 	slti	v1,a1,200
  403900:	14600003 	bnez	v1,403910 <__kernel_standard+0x710>
  403904:	244476fc 	addiu	a0,v0,30460
  403908:	3c020046 	lui	v0,0x46
  40390c:	24447700 	addiu	a0,v0,30464
  403910:	3c021000 	lui	v0,0x1000
  403914:	3c100049 	lui	s0,0x49
  403918:	d4560008 	ldc1	$f22,8(v0)
  40391c:	8e03a9e0 	lw	v1,-22048(s0)
  403920:	24020002 	li	v0,2
  403924:	afa40014 	sw	a0,20(sp)
  403928:	f7b60028 	sdc1	$f22,40(sp)
  40392c:	14620625 	bne	v1,v0,4051c4 <__kernel_standard+0x1fc4>
  403930:	00000000 	nop
  403934:	0c102738 	jal	409ce0 <__errno_location>
  403938:	00000000 	nop
  40393c:	24030022 	li	v1,34
  403940:	08100c94 	j	403250 <__kernel_standard+0x50>
  403944:	ac430000 	sw	v1,0(v0)
  403948:	24030001 	li	v1,1
  40394c:	afa30010 	sw	v1,16(sp)
  403950:	28a20064 	slti	v0,a1,100
  403954:	3c030046 	lui	v1,0x46
  403958:	f7ae0020 	sdc1	$f14,32(sp)
  40395c:	f7ac0018 	sdc1	$f12,24(sp)
  403960:	14400007 	bnez	v0,403980 <__kernel_standard+0x780>
  403964:	24647678 	addiu	a0,v1,30328
  403968:	3c020046 	lui	v0,0x46
  40396c:	28a300c8 	slti	v1,a1,200
  403970:	14600003 	bnez	v1,403980 <__kernel_standard+0x780>
  403974:	2444767c 	addiu	a0,v0,30332
  403978:	3c020046 	lui	v0,0x46
  40397c:	24447684 	addiu	a0,v0,30340
  403980:	3c020049 	lui	v0,0x49
  403984:	8c43a9e0 	lw	v1,-22048(v0)
  403988:	38620002 	xori	v0,v1,0x2
  40398c:	00031827 	nor	v1,zero,v1
  403990:	2c630001 	sltiu	v1,v1,1
  403994:	2c420001 	sltiu	v0,v0,1
  403998:	00621825 	or	v1,v1,v0
  40399c:	106006b6 	beqz	v1,405478 <__kernel_standard+0x2278>
  4039a0:	afa40014 	sw	a0,20(sp)
  4039a4:	3c020046 	lui	v0,0x46
  4039a8:	d4567ab8 	ldc1	$f22,31416(v0)
  4039ac:	f7b60028 	sdc1	$f22,40(sp)
  4039b0:	08100c95 	j	403254 <__kernel_standard+0x54>
  4039b4:	4620b006 	mov.d	$f0,$f22
  4039b8:	24030003 	li	v1,3
  4039bc:	afa30010 	sw	v1,16(sp)
  4039c0:	28a20064 	slti	v0,a1,100
  4039c4:	3c030046 	lui	v1,0x46
  4039c8:	f7ae0020 	sdc1	$f14,32(sp)
  4039cc:	f7ac0018 	sdc1	$f12,24(sp)
  4039d0:	14400007 	bnez	v0,4039f0 <__kernel_standard+0x7f0>
  4039d4:	246476e0 	addiu	a0,v1,30432
  4039d8:	3c020046 	lui	v0,0x46
  4039dc:	28a300c8 	slti	v1,a1,200
  4039e0:	14600003 	bnez	v1,4039f0 <__kernel_standard+0x7f0>
  4039e4:	244476e8 	addiu	a0,v0,30440
  4039e8:	3c020046 	lui	v0,0x46
  4039ec:	244476f0 	addiu	a0,v0,30448
  4039f0:	3c021000 	lui	v0,0x1000
  4039f4:	d4400008 	ldc1	$f0,8(v0)
  4039f8:	4622003c 	c.lt.d	$f0,$f2
  4039fc:	00000000 	nop
  403a00:	45000612 	bc1f	40524c <__kernel_standard+0x204c>
  403a04:	afa40014 	sw	a0,20(sp)
  403a08:	3c020046 	lui	v0,0x46
  403a0c:	d4407aa0 	ldc1	$f0,31392(v0)
  403a10:	3c020049 	lui	v0,0x49
  403a14:	8c43a9e0 	lw	v1,-22048(v0)
  403a18:	24020002 	li	v0,2
  403a1c:	f7a00028 	sdc1	$f0,40(sp)
  403a20:	146205d4 	bne	v1,v0,405174 <__kernel_standard+0x1f74>
  403a24:	46200586 	mov.d	$f22,$f0
  403a28:	0c102738 	jal	409ce0 <__errno_location>
  403a2c:	00000000 	nop
  403a30:	24030022 	li	v1,34
  403a34:	08100c94 	j	403250 <__kernel_standard+0x50>
  403a38:	ac430000 	sw	v1,0(v0)
  403a3c:	24030003 	li	v1,3
  403a40:	3c040046 	lui	a0,0x46
  403a44:	28a20064 	slti	v0,a1,100
  403a48:	f7ac0018 	sdc1	$f12,24(sp)
  403a4c:	f7ae0020 	sdc1	$f14,32(sp)
  403a50:	afa30010 	sw	v1,16(sp)
  403a54:	14400007 	bnez	v0,403a74 <__kernel_standard+0x874>
  403a58:	248676c8 	addiu	a2,a0,30408
  403a5c:	3c020046 	lui	v0,0x46
  403a60:	28a300c8 	slti	v1,a1,200
  403a64:	14600003 	bnez	v1,403a74 <__kernel_standard+0x874>
  403a68:	244676d0 	addiu	a2,v0,30416
  403a6c:	3c020046 	lui	v0,0x46
  403a70:	244676d8 	addiu	a2,v0,30424
  403a74:	3c020046 	lui	v0,0x46
  403a78:	3c030049 	lui	v1,0x49
  403a7c:	d4567aa0 	ldc1	$f22,31392(v0)
  403a80:	8c64a9e0 	lw	a0,-22048(v1)
  403a84:	24020002 	li	v0,2
  403a88:	afa60014 	sw	a2,20(sp)
  403a8c:	f7b60028 	sdc1	$f22,40(sp)
  403a90:	148205c2 	bne	a0,v0,40519c <__kernel_standard+0x1f9c>
  403a94:	00000000 	nop
  403a98:	0c102738 	jal	409ce0 <__errno_location>
  403a9c:	00000000 	nop
  403aa0:	24030022 	li	v1,34
  403aa4:	08100c94 	j	403250 <__kernel_standard+0x50>
  403aa8:	ac430000 	sw	v1,0(v0)
  403aac:	24030002 	li	v1,2
  403ab0:	afa30010 	sw	v1,16(sp)
  403ab4:	28a20064 	slti	v0,a1,100
  403ab8:	3c030046 	lui	v1,0x46
  403abc:	f7ae0020 	sdc1	$f14,32(sp)
  403ac0:	f7ac0018 	sdc1	$f12,24(sp)
  403ac4:	14400007 	bnez	v0,403ae4 <__kernel_standard+0x8e4>
  403ac8:	24647704 	addiu	a0,v1,30468
  403acc:	3c020046 	lui	v0,0x46
  403ad0:	28a300c8 	slti	v1,a1,200
  403ad4:	14600003 	bnez	v1,403ae4 <__kernel_standard+0x8e4>
  403ad8:	2444770c 	addiu	a0,v0,30476
  403adc:	3c020046 	lui	v0,0x46
  403ae0:	24447714 	addiu	a0,v0,30484
  403ae4:	3c021000 	lui	v0,0x1000
  403ae8:	d4400008 	ldc1	$f0,8(v0)
  403aec:	3c100049 	lui	s0,0x49
  403af0:	8e03a9e0 	lw	v1,-22048(s0)
  403af4:	46201583 	div.d	$f22,$f2,$f0
  403af8:	24020002 	li	v0,2
  403afc:	afa40014 	sw	a0,20(sp)
  403b00:	f7b60028 	sdc1	$f22,40(sp)
  403b04:	14620407 	bne	v1,v0,404b24 <__kernel_standard+0x1924>
  403b08:	00000000 	nop
  403b0c:	0c102738 	jal	409ce0 <__errno_location>
  403b10:	00000000 	nop
  403b14:	24030021 	li	v1,33
  403b18:	08100c94 	j	403250 <__kernel_standard+0x50>
  403b1c:	ac430000 	sw	v1,0(v0)
  403b20:	24030002 	li	v1,2
  403b24:	3c040046 	lui	a0,0x46
  403b28:	28a20064 	slti	v0,a1,100
  403b2c:	f7ac0018 	sdc1	$f12,24(sp)
  403b30:	f7ae0020 	sdc1	$f14,32(sp)
  403b34:	afa30010 	sw	v1,16(sp)
  403b38:	14400007 	bnez	v0,403b58 <__kernel_standard+0x958>
  403b3c:	2484771c 	addiu	a0,a0,30492
  403b40:	3c020046 	lui	v0,0x46
  403b44:	28a300c8 	slti	v1,a1,200
  403b48:	14600003 	bnez	v1,403b58 <__kernel_standard+0x958>
  403b4c:	24447724 	addiu	a0,v0,30500
  403b50:	3c020046 	lui	v0,0x46
  403b54:	2444772c 	addiu	a0,v0,30508
  403b58:	3c030049 	lui	v1,0x49
  403b5c:	8c62a9e0 	lw	v0,-22048(v1)
  403b60:	14400621 	bnez	v0,4053e8 <__kernel_standard+0x21e8>
  403b64:	afa40014 	sw	a0,20(sp)
  403b68:	3c020046 	lui	v0,0x46
  403b6c:	d4567a98 	ldc1	$f22,31384(v0)
  403b70:	3c020049 	lui	v0,0x49
  403b74:	8c43a9e0 	lw	v1,-22048(v0)
  403b78:	24020002 	li	v0,2
  403b7c:	f7b60028 	sdc1	$f22,40(sp)
  403b80:	14620408 	bne	v1,v0,404ba4 <__kernel_standard+0x19a4>
  403b84:	00000000 	nop
  403b88:	0c102738 	jal	409ce0 <__errno_location>
  403b8c:	00000000 	nop
  403b90:	24030021 	li	v1,33
  403b94:	08100c94 	j	403250 <__kernel_standard+0x50>
  403b98:	ac430000 	sw	v1,0(v0)
  403b9c:	24030001 	li	v1,1
  403ba0:	3c040046 	lui	a0,0x46
  403ba4:	28a20064 	slti	v0,a1,100
  403ba8:	f7ac0018 	sdc1	$f12,24(sp)
  403bac:	f7ae0020 	sdc1	$f14,32(sp)
  403bb0:	afa30010 	sw	v1,16(sp)
  403bb4:	14400007 	bnez	v0,403bd4 <__kernel_standard+0x9d4>
  403bb8:	24847678 	addiu	a0,a0,30328
  403bbc:	3c020046 	lui	v0,0x46
  403bc0:	28a300c8 	slti	v1,a1,200
  403bc4:	14600003 	bnez	v1,403bd4 <__kernel_standard+0x9d4>
  403bc8:	2444767c 	addiu	a0,v0,30332
  403bcc:	3c020046 	lui	v0,0x46
  403bd0:	24447684 	addiu	a0,v0,30340
  403bd4:	3c030049 	lui	v1,0x49
  403bd8:	8c62a9e0 	lw	v0,-22048(v1)
  403bdc:	14400593 	bnez	v0,40522c <__kernel_standard+0x202c>
  403be0:	afa40014 	sw	a0,20(sp)
  403be4:	3c021000 	lui	v0,0x1000
  403be8:	d4560008 	ldc1	$f22,8(v0)
  403bec:	3c020049 	lui	v0,0x49
  403bf0:	8c43a9e0 	lw	v1,-22048(v0)
  403bf4:	24020002 	li	v0,2
  403bf8:	f7b60028 	sdc1	$f22,40(sp)
  403bfc:	14620543 	bne	v1,v0,40510c <__kernel_standard+0x1f0c>
  403c00:	00000000 	nop
  403c04:	0c102738 	jal	409ce0 <__errno_location>
  403c08:	00000000 	nop
  403c0c:	24030021 	li	v1,33
  403c10:	08100c94 	j	403250 <__kernel_standard+0x50>
  403c14:	ac430000 	sw	v1,0(v0)
  403c18:	24030004 	li	v1,4
  403c1c:	3c040046 	lui	a0,0x46
  403c20:	28a20064 	slti	v0,a1,100
  403c24:	f7ac0018 	sdc1	$f12,24(sp)
  403c28:	f7ae0020 	sdc1	$f14,32(sp)
  403c2c:	afa30010 	sw	v1,16(sp)
  403c30:	14400007 	bnez	v0,403c50 <__kernel_standard+0xa50>
  403c34:	24867678 	addiu	a2,a0,30328
  403c38:	3c020046 	lui	v0,0x46
  403c3c:	28a300c8 	slti	v1,a1,200
  403c40:	14600003 	bnez	v1,403c50 <__kernel_standard+0xa50>
  403c44:	2446767c 	addiu	a2,v0,30332
  403c48:	3c020046 	lui	v0,0x46
  403c4c:	24467684 	addiu	a2,v0,30340
  403c50:	3c021000 	lui	v0,0x1000
  403c54:	3c030049 	lui	v1,0x49
  403c58:	d4560008 	ldc1	$f22,8(v0)
  403c5c:	8c64a9e0 	lw	a0,-22048(v1)
  403c60:	24020002 	li	v0,2
  403c64:	afa60014 	sw	a2,20(sp)
  403c68:	f7b60028 	sdc1	$f22,40(sp)
  403c6c:	148203b9 	bne	a0,v0,404b54 <__kernel_standard+0x1954>
  403c70:	00000000 	nop
  403c74:	0c102738 	jal	409ce0 <__errno_location>
  403c78:	00000000 	nop
  403c7c:	24030022 	li	v1,34
  403c80:	08100c94 	j	403250 <__kernel_standard+0x50>
  403c84:	ac430000 	sw	v1,0(v0)
  403c88:	24030004 	li	v1,4
  403c8c:	3c040046 	lui	a0,0x46
  403c90:	28a20064 	slti	v0,a1,100
  403c94:	f7ac0018 	sdc1	$f12,24(sp)
  403c98:	f7ae0020 	sdc1	$f14,32(sp)
  403c9c:	afa30010 	sw	v1,16(sp)
  403ca0:	14400007 	bnez	v0,403cc0 <__kernel_standard+0xac0>
  403ca4:	24867734 	addiu	a2,a0,30516
  403ca8:	3c020046 	lui	v0,0x46
  403cac:	28a300c8 	slti	v1,a1,200
  403cb0:	14600003 	bnez	v1,403cc0 <__kernel_standard+0xac0>
  403cb4:	24467738 	addiu	a2,v0,30520
  403cb8:	3c020046 	lui	v0,0x46
  403cbc:	24467740 	addiu	a2,v0,30528
  403cc0:	3c021000 	lui	v0,0x1000
  403cc4:	3c030049 	lui	v1,0x49
  403cc8:	d4560008 	ldc1	$f22,8(v0)
  403ccc:	8c64a9e0 	lw	a0,-22048(v1)
  403cd0:	24020002 	li	v0,2
  403cd4:	afa60014 	sw	a2,20(sp)
  403cd8:	f7b60028 	sdc1	$f22,40(sp)
  403cdc:	148204f5 	bne	a0,v0,4050b4 <__kernel_standard+0x1eb4>
  403ce0:	00000000 	nop
  403ce4:	0c102738 	jal	409ce0 <__errno_location>
  403ce8:	00000000 	nop
  403cec:	24030022 	li	v1,34
  403cf0:	08100c94 	j	403250 <__kernel_standard+0x50>
  403cf4:	ac430000 	sw	v1,0(v0)
  403cf8:	24030001 	li	v1,1
  403cfc:	afa30010 	sw	v1,16(sp)
  403d00:	28a20064 	slti	v0,a1,100
  403d04:	3c030046 	lui	v1,0x46
  403d08:	f7ae0020 	sdc1	$f14,32(sp)
  403d0c:	f7ac0018 	sdc1	$f12,24(sp)
  403d10:	14400007 	bnez	v0,403d30 <__kernel_standard+0xb30>
  403d14:	24647748 	addiu	a0,v1,30536
  403d18:	3c020046 	lui	v0,0x46
  403d1c:	28a300c8 	slti	v1,a1,200
  403d20:	14600003 	bnez	v1,403d30 <__kernel_standard+0xb30>
  403d24:	24447750 	addiu	a0,v0,30544
  403d28:	3c020046 	lui	v0,0x46
  403d2c:	24447758 	addiu	a0,v0,30552
  403d30:	3c030049 	lui	v1,0x49
  403d34:	8c62a9e0 	lw	v0,-22048(v1)
  403d38:	afa40014 	sw	a0,20(sp)
  403d3c:	10400004 	beqz	v0,403d50 <__kernel_standard+0xb50>
  403d40:	46201586 	mov.d	$f22,$f2
  403d44:	3c021000 	lui	v0,0x1000
  403d48:	d4400008 	ldc1	$f0,8(v0)
  403d4c:	46200583 	div.d	$f22,$f0,$f0
  403d50:	3c020049 	lui	v0,0x49
  403d54:	8c43a9e0 	lw	v1,-22048(v0)
  403d58:	24020002 	li	v0,2
  403d5c:	f7b60028 	sdc1	$f22,40(sp)
  403d60:	14620356 	bne	v1,v0,404abc <__kernel_standard+0x18bc>
  403d64:	00000000 	nop
  403d68:	0c102738 	jal	409ce0 <__errno_location>
  403d6c:	00000000 	nop
  403d70:	24030021 	li	v1,33
  403d74:	08100c94 	j	403250 <__kernel_standard+0x50>
  403d78:	ac430000 	sw	v1,0(v0)
  403d7c:	24030001 	li	v1,1
  403d80:	3c040046 	lui	a0,0x46
  403d84:	28a20064 	slti	v0,a1,100
  403d88:	f7ac0018 	sdc1	$f12,24(sp)
  403d8c:	f7ae0020 	sdc1	$f14,32(sp)
  403d90:	afa30010 	sw	v1,16(sp)
  403d94:	14400007 	bnez	v0,403db4 <__kernel_standard+0xbb4>
  403d98:	248476bc 	addiu	a0,a0,30396
  403d9c:	3c020046 	lui	v0,0x46
  403da0:	28a300c8 	slti	v1,a1,200
  403da4:	14600003 	bnez	v1,403db4 <__kernel_standard+0xbb4>
  403da8:	244476c0 	addiu	a0,v0,30400
  403dac:	3c020046 	lui	v0,0x46
  403db0:	244476c4 	addiu	a0,v0,30404
  403db4:	3c030049 	lui	v1,0x49
  403db8:	8c62a9e0 	lw	v0,-22048(v1)
  403dbc:	14400553 	bnez	v0,40530c <__kernel_standard+0x210c>
  403dc0:	afa40014 	sw	a0,20(sp)
  403dc4:	3c020046 	lui	v0,0x46
  403dc8:	d4567aa8 	ldc1	$f22,31400(v0)
  403dcc:	3c020049 	lui	v0,0x49
  403dd0:	8c43a9e0 	lw	v1,-22048(v0)
  403dd4:	24020002 	li	v0,2
  403dd8:	f7b60028 	sdc1	$f22,40(sp)
  403ddc:	146203cf 	bne	v1,v0,404d1c <__kernel_standard+0x1b1c>
  403de0:	00000000 	nop
  403de4:	0c102738 	jal	409ce0 <__errno_location>
  403de8:	00000000 	nop
  403dec:	24030021 	li	v1,33
  403df0:	08100c94 	j	403250 <__kernel_standard+0x50>
  403df4:	ac430000 	sw	v1,0(v0)
  403df8:	24030001 	li	v1,1
  403dfc:	3c040046 	lui	a0,0x46
  403e00:	28a20064 	slti	v0,a1,100
  403e04:	f7ac0018 	sdc1	$f12,24(sp)
  403e08:	f7ae0020 	sdc1	$f14,32(sp)
  403e0c:	afa30010 	sw	v1,16(sp)
  403e10:	14400007 	bnez	v0,403e30 <__kernel_standard+0xc30>
  403e14:	24847760 	addiu	a0,a0,30560
  403e18:	3c020046 	lui	v0,0x46
  403e1c:	28a300c8 	slti	v1,a1,200
  403e20:	14600003 	bnez	v1,403e30 <__kernel_standard+0xc30>
  403e24:	24447768 	addiu	a0,v0,30568
  403e28:	3c020046 	lui	v0,0x46
  403e2c:	24447770 	addiu	a0,v0,30576
  403e30:	3c030049 	lui	v1,0x49
  403e34:	8c62a9e0 	lw	v0,-22048(v1)
  403e38:	14400540 	bnez	v0,40533c <__kernel_standard+0x213c>
  403e3c:	afa40014 	sw	a0,20(sp)
  403e40:	3c020046 	lui	v0,0x46
  403e44:	d4567aa8 	ldc1	$f22,31400(v0)
  403e48:	3c020049 	lui	v0,0x49
  403e4c:	8c43a9e0 	lw	v1,-22048(v0)
  403e50:	24020002 	li	v0,2
  403e54:	f7b60028 	sdc1	$f22,40(sp)
  403e58:	146202f1 	bne	v1,v0,404a20 <__kernel_standard+0x1820>
  403e5c:	00000000 	nop
  403e60:	0c102738 	jal	409ce0 <__errno_location>
  403e64:	00000000 	nop
  403e68:	24030021 	li	v1,33
  403e6c:	08100c94 	j	403250 <__kernel_standard+0x50>
  403e70:	ac430000 	sw	v1,0(v0)
  403e74:	24030002 	li	v1,2
  403e78:	3c040046 	lui	a0,0x46
  403e7c:	28a20064 	slti	v0,a1,100
  403e80:	f7ac0018 	sdc1	$f12,24(sp)
  403e84:	f7ae0020 	sdc1	$f14,32(sp)
  403e88:	afa30010 	sw	v1,16(sp)
  403e8c:	14400007 	bnez	v0,403eac <__kernel_standard+0xcac>
  403e90:	24847760 	addiu	a0,a0,30560
  403e94:	3c020046 	lui	v0,0x46
  403e98:	28a300c8 	slti	v1,a1,200
  403e9c:	14600003 	bnez	v1,403eac <__kernel_standard+0xcac>
  403ea0:	24447768 	addiu	a0,v0,30568
  403ea4:	3c020046 	lui	v0,0x46
  403ea8:	24447770 	addiu	a0,v0,30576
  403eac:	3c030049 	lui	v1,0x49
  403eb0:	8c62a9e0 	lw	v0,-22048(v1)
  403eb4:	14400559 	bnez	v0,40541c <__kernel_standard+0x221c>
  403eb8:	afa40014 	sw	a0,20(sp)
  403ebc:	3c020046 	lui	v0,0x46
  403ec0:	d4567aa8 	ldc1	$f22,31400(v0)
  403ec4:	3c020049 	lui	v0,0x49
  403ec8:	8c43a9e0 	lw	v1,-22048(v0)
  403ecc:	24020002 	li	v0,2
  403ed0:	f7b60028 	sdc1	$f22,40(sp)
  403ed4:	1462034a 	bne	v1,v0,404c00 <__kernel_standard+0x1a00>
  403ed8:	00000000 	nop
  403edc:	0c102738 	jal	409ce0 <__errno_location>
  403ee0:	00000000 	nop
  403ee4:	24030022 	li	v1,34
  403ee8:	08100c94 	j	403250 <__kernel_standard+0x50>
  403eec:	ac430000 	sw	v1,0(v0)
  403ef0:	24030001 	li	v1,1
  403ef4:	3c040046 	lui	a0,0x46
  403ef8:	28a20064 	slti	v0,a1,100
  403efc:	f7ae0018 	sdc1	$f14,24(sp)
  403f00:	f7ac0020 	sdc1	$f12,32(sp)
  403f04:	afa30010 	sw	v1,16(sp)
  403f08:	14400007 	bnez	v0,403f28 <__kernel_standard+0xd28>
  403f0c:	24847778 	addiu	a0,a0,30584
  403f10:	3c020046 	lui	v0,0x46
  403f14:	28a300c8 	slti	v1,a1,200
  403f18:	14600003 	bnez	v1,403f28 <__kernel_standard+0xd28>
  403f1c:	24447780 	addiu	a0,v0,30592
  403f20:	3c020046 	lui	v0,0x46
  403f24:	24447788 	addiu	a0,v0,30600
  403f28:	3c100049 	lui	s0,0x49
  403f2c:	8e02a9e0 	lw	v0,-22048(s0)
  403f30:	1440070e 	bnez	v0,405b6c <__kernel_standard+0x296c>
  403f34:	afa40014 	sw	a0,20(sp)
  403f38:	3c020046 	lui	v0,0x46
  403f3c:	d4567a98 	ldc1	$f22,31384(v0)
  403f40:	f7b60028 	sdc1	$f22,40(sp)
  403f44:	0c1016e4 	jal	405b90 <__matherr>
  403f48:	27a40010 	addiu	a0,sp,16
  403f4c:	1440053f 	bnez	v0,40544c <__kernel_standard+0x224c>
  403f50:	8e02a9e0 	lw	v0,-22048(s0)
  403f54:	104005f1 	beqz	v0,40571c <__kernel_standard+0x251c>
  403f58:	3c020049 	lui	v0,0x49
  403f5c:	0c102738 	jal	409ce0 <__errno_location>
  403f60:	00000000 	nop
  403f64:	d7b60028 	ldc1	$f22,40(sp)
  403f68:	24030021 	li	v1,33
  403f6c:	08100c94 	j	403250 <__kernel_standard+0x50>
  403f70:	ac430000 	sw	v1,0(v0)
  403f74:	24030001 	li	v1,1
  403f78:	3c040046 	lui	a0,0x46
  403f7c:	28a20064 	slti	v0,a1,100
  403f80:	f7ac0018 	sdc1	$f12,24(sp)
  403f84:	f7ae0020 	sdc1	$f14,32(sp)
  403f88:	afa30010 	sw	v1,16(sp)
  403f8c:	14400007 	bnez	v0,403fac <__kernel_standard+0xdac>
  403f90:	24847790 	addiu	a0,a0,30608
  403f94:	3c020046 	lui	v0,0x46
  403f98:	28a300c8 	slti	v1,a1,200
  403f9c:	14600003 	bnez	v1,403fac <__kernel_standard+0xdac>
  403fa0:	24447798 	addiu	a0,v0,30616
  403fa4:	3c020046 	lui	v0,0x46
  403fa8:	244477a0 	addiu	a0,v0,30624
  403fac:	3c030049 	lui	v1,0x49
  403fb0:	8c62a9e0 	lw	v0,-22048(v1)
  403fb4:	14400514 	bnez	v0,405408 <__kernel_standard+0x2208>
  403fb8:	afa40014 	sw	a0,20(sp)
  403fbc:	3c020046 	lui	v0,0x46
  403fc0:	d4567a98 	ldc1	$f22,31384(v0)
  403fc4:	3c020049 	lui	v0,0x49
  403fc8:	8c43a9e0 	lw	v1,-22048(v0)
  403fcc:	24020002 	li	v0,2
  403fd0:	f7b60028 	sdc1	$f22,40(sp)
  403fd4:	146203fd 	bne	v1,v0,404fcc <__kernel_standard+0x1dcc>
  403fd8:	00000000 	nop
  403fdc:	0c102738 	jal	409ce0 <__errno_location>
  403fe0:	00000000 	nop
  403fe4:	24030021 	li	v1,33
  403fe8:	08100c94 	j	403250 <__kernel_standard+0x50>
  403fec:	ac430000 	sw	v1,0(v0)
  403ff0:	24030001 	li	v1,1
  403ff4:	3c040046 	lui	a0,0x46
  403ff8:	28a20064 	slti	v0,a1,100
  403ffc:	f7ac0018 	sdc1	$f12,24(sp)
  404000:	f7ae0020 	sdc1	$f14,32(sp)
  404004:	afa30010 	sw	v1,16(sp)
  404008:	14400007 	bnez	v0,404028 <__kernel_standard+0xe28>
  40400c:	248477a8 	addiu	a0,a0,30632
  404010:	3c020046 	lui	v0,0x46
  404014:	28a300c8 	slti	v1,a1,200
  404018:	14600003 	bnez	v1,404028 <__kernel_standard+0xe28>
  40401c:	244477b0 	addiu	a0,v0,30640
  404020:	3c020046 	lui	v0,0x46
  404024:	244477b8 	addiu	a0,v0,30648
  404028:	3c021000 	lui	v0,0x1000
  40402c:	d4400008 	ldc1	$f0,8(v0)
  404030:	3c100049 	lui	s0,0x49
  404034:	8e03a9e0 	lw	v1,-22048(s0)
  404038:	46200583 	div.d	$f22,$f0,$f0
  40403c:	24020002 	li	v0,2
  404040:	afa40014 	sw	a0,20(sp)
  404044:	f7b60028 	sdc1	$f22,40(sp)
  404048:	14620377 	bne	v1,v0,404e28 <__kernel_standard+0x1c28>
  40404c:	00000000 	nop
  404050:	0c102738 	jal	409ce0 <__errno_location>
  404054:	00000000 	nop
  404058:	24030021 	li	v1,33
  40405c:	08100c94 	j	403250 <__kernel_standard+0x50>
  404060:	ac430000 	sw	v1,0(v0)
  404064:	24030001 	li	v1,1
  404068:	3c040046 	lui	a0,0x46
  40406c:	28a20064 	slti	v0,a1,100
  404070:	f7ac0018 	sdc1	$f12,24(sp)
  404074:	f7ae0020 	sdc1	$f14,32(sp)
  404078:	afa30010 	sw	v1,16(sp)
  40407c:	14400007 	bnez	v0,40409c <__kernel_standard+0xe9c>
  404080:	248477c0 	addiu	a0,a0,30656
  404084:	3c020046 	lui	v0,0x46
  404088:	28a300c8 	slti	v1,a1,200
  40408c:	14600003 	bnez	v1,40409c <__kernel_standard+0xe9c>
  404090:	244477cc 	addiu	a0,v0,30668
  404094:	3c020046 	lui	v0,0x46
  404098:	244477d8 	addiu	a0,v0,30680
  40409c:	3c021000 	lui	v0,0x1000
  4040a0:	d4400008 	ldc1	$f0,8(v0)
  4040a4:	3c100049 	lui	s0,0x49
  4040a8:	8e03a9e0 	lw	v1,-22048(s0)
  4040ac:	46200583 	div.d	$f22,$f0,$f0
  4040b0:	24020002 	li	v0,2
  4040b4:	afa40014 	sw	a0,20(sp)
  4040b8:	f7b60028 	sdc1	$f22,40(sp)
  4040bc:	1462023f 	bne	v1,v0,4049bc <__kernel_standard+0x17bc>
  4040c0:	00000000 	nop
  4040c4:	0c102738 	jal	409ce0 <__errno_location>
  4040c8:	00000000 	nop
  4040cc:	24030021 	li	v1,33
  4040d0:	08100c94 	j	403250 <__kernel_standard+0x50>
  4040d4:	ac430000 	sw	v1,0(v0)
  4040d8:	24030001 	li	v1,1
  4040dc:	3c040046 	lui	a0,0x46
  4040e0:	28a20064 	slti	v0,a1,100
  4040e4:	f7ac0018 	sdc1	$f12,24(sp)
  4040e8:	f7ae0020 	sdc1	$f14,32(sp)
  4040ec:	afa30010 	sw	v1,16(sp)
  4040f0:	14400007 	bnez	v0,404110 <__kernel_standard+0xf10>
  4040f4:	24847660 	addiu	a0,a0,30304
  4040f8:	3c020046 	lui	v0,0x46
  4040fc:	28a300c8 	slti	v1,a1,200
  404100:	14600003 	bnez	v1,404110 <__kernel_standard+0xf10>
  404104:	24447664 	addiu	a0,v0,30308
  404108:	3c020046 	lui	v0,0x46
  40410c:	24447668 	addiu	a0,v0,30312
  404110:	3c030049 	lui	v1,0x49
  404114:	8c62a9e0 	lw	v0,-22048(v1)
  404118:	144004b7 	bnez	v0,4053f8 <__kernel_standard+0x21f8>
  40411c:	afa40014 	sw	a0,20(sp)
  404120:	3c020046 	lui	v0,0x46
  404124:	d4567aa8 	ldc1	$f22,31400(v0)
  404128:	3c020049 	lui	v0,0x49
  40412c:	8c43a9e0 	lw	v1,-22048(v0)
  404130:	24020002 	li	v0,2
  404134:	f7b60028 	sdc1	$f22,40(sp)
  404138:	1462035e 	bne	v1,v0,404eb4 <__kernel_standard+0x1cb4>
  40413c:	00000000 	nop
  404140:	0c102738 	jal	409ce0 <__errno_location>
  404144:	00000000 	nop
  404148:	24030021 	li	v1,33
  40414c:	08100c94 	j	403250 <__kernel_standard+0x50>
  404150:	ac430000 	sw	v1,0(v0)
  404154:	24030003 	li	v1,3
  404158:	afa30010 	sw	v1,16(sp)
  40415c:	28a20064 	slti	v0,a1,100
  404160:	3c030046 	lui	v1,0x46
  404164:	f7ac0018 	sdc1	$f12,24(sp)
  404168:	f7ae0020 	sdc1	$f14,32(sp)
  40416c:	14400007 	bnez	v0,40418c <__kernel_standard+0xf8c>
  404170:	24647678 	addiu	a0,v1,30328
  404174:	3c020046 	lui	v0,0x46
  404178:	28a300c8 	slti	v1,a1,200
  40417c:	14600003 	bnez	v1,40418c <__kernel_standard+0xf8c>
  404180:	2444767c 	addiu	a0,v0,30332
  404184:	3c020046 	lui	v0,0x46
  404188:	24447684 	addiu	a0,v0,30340
  40418c:	3c030049 	lui	v1,0x49
  404190:	8c62a9e0 	lw	v0,-22048(v1)
  404194:	14400477 	bnez	v0,405374 <__kernel_standard+0x2174>
  404198:	afa40014 	sw	a0,20(sp)
  40419c:	3c021000 	lui	v0,0x1000
  4041a0:	d4400008 	ldc1	$f0,8(v0)
  4041a4:	3c030046 	lui	v1,0x46
  4041a8:	3c020046 	lui	v0,0x46
  4041ac:	d4767a98 	ldc1	$f22,31384(v1)
  4041b0:	4620103c 	c.lt.d	$f2,$f0
  4041b4:	d4407198 	ldc1	$f0,29080(v0)
  4041b8:	f7b60028 	sdc1	$f22,40(sp)
  4041bc:	4501054c 	bc1t	4056f0 <__kernel_standard+0x24f0>
  4041c0:	4620a502 	mul.d	$f20,$f20,$f0
  4041c4:	3c020049 	lui	v0,0x49
  4041c8:	8c43a9e0 	lw	v1,-22048(v0)
  4041cc:	24020002 	li	v0,2
  4041d0:	1462038b 	bne	v1,v0,405000 <__kernel_standard+0x1e00>
  4041d4:	00000000 	nop
  4041d8:	0c102738 	jal	409ce0 <__errno_location>
  4041dc:	00000000 	nop
  4041e0:	d7b60028 	ldc1	$f22,40(sp)
  4041e4:	24030022 	li	v1,34
  4041e8:	08100c94 	j	403250 <__kernel_standard+0x50>
  4041ec:	ac430000 	sw	v1,0(v0)
  4041f0:	24030001 	li	v1,1
  4041f4:	3c040046 	lui	a0,0x46
  4041f8:	28a20064 	slti	v0,a1,100
  4041fc:	f7ac0018 	sdc1	$f12,24(sp)
  404200:	f7ae0020 	sdc1	$f14,32(sp)
  404204:	afa30010 	sw	v1,16(sp)
  404208:	14400007 	bnez	v0,404228 <__kernel_standard+0x1028>
  40420c:	24847678 	addiu	a0,a0,30328
  404210:	3c020046 	lui	v0,0x46
  404214:	28a300c8 	slti	v1,a1,200
  404218:	14600003 	bnez	v1,404228 <__kernel_standard+0x1028>
  40421c:	2444767c 	addiu	a0,v0,30332
  404220:	3c020046 	lui	v0,0x46
  404224:	24447684 	addiu	a0,v0,30340
  404228:	3c020049 	lui	v0,0x49
  40422c:	8c43a9e0 	lw	v1,-22048(v0)
  404230:	3c021000 	lui	v0,0x1000
  404234:	afa40014 	sw	a0,20(sp)
  404238:	d4560008 	ldc1	$f22,8(v0)
  40423c:	10600486 	beqz	v1,405458 <__kernel_standard+0x2258>
  404240:	3c020046 	lui	v0,0x46
  404244:	d4567ab8 	ldc1	$f22,31416(v0)
  404248:	f7b60028 	sdc1	$f22,40(sp)
  40424c:	08100c95 	j	403254 <__kernel_standard+0x54>
  404250:	4620b006 	mov.d	$f0,$f22
  404254:	24030003 	li	v1,3
  404258:	3c040046 	lui	a0,0x46
  40425c:	28a20064 	slti	v0,a1,100
  404260:	f7ac0018 	sdc1	$f12,24(sp)
  404264:	f7ae0020 	sdc1	$f14,32(sp)
  404268:	afa30010 	sw	v1,16(sp)
  40426c:	14400007 	bnez	v0,40428c <__kernel_standard+0x108c>
  404270:	248477e4 	addiu	a0,a0,30692
  404274:	3c020046 	lui	v0,0x46
  404278:	28a300c8 	slti	v1,a1,200
  40427c:	14600003 	bnez	v1,40428c <__kernel_standard+0x108c>
  404280:	244477ec 	addiu	a0,v0,30700
  404284:	3c020046 	lui	v0,0x46
  404288:	244477f4 	addiu	a0,v0,30708
  40428c:	3c030049 	lui	v1,0x49
  404290:	8c62a9e0 	lw	v0,-22048(v1)
  404294:	14400421 	bnez	v0,40531c <__kernel_standard+0x211c>
  404298:	afa40014 	sw	a0,20(sp)
  40429c:	3c020046 	lui	v0,0x46
  4042a0:	d4567a98 	ldc1	$f22,31384(v0)
  4042a4:	3c020049 	lui	v0,0x49
  4042a8:	8c43a9e0 	lw	v1,-22048(v0)
  4042ac:	24020002 	li	v0,2
  4042b0:	f7b60028 	sdc1	$f22,40(sp)
  4042b4:	146202d2 	bne	v1,v0,404e00 <__kernel_standard+0x1c00>
  4042b8:	00000000 	nop
  4042bc:	0c102738 	jal	409ce0 <__errno_location>
  4042c0:	00000000 	nop
  4042c4:	24030022 	li	v1,34
  4042c8:	08100c94 	j	403250 <__kernel_standard+0x50>
  4042cc:	ac430000 	sw	v1,0(v0)
  4042d0:	24030003 	li	v1,3
  4042d4:	afa30010 	sw	v1,16(sp)
  4042d8:	28a20064 	slti	v0,a1,100
  4042dc:	3c030046 	lui	v1,0x46
  4042e0:	f7ae0020 	sdc1	$f14,32(sp)
  4042e4:	f7ac0018 	sdc1	$f12,24(sp)
  4042e8:	14400007 	bnez	v0,404308 <__kernel_standard+0x1108>
  4042ec:	246477fc 	addiu	a0,v1,30716
  4042f0:	3c020046 	lui	v0,0x46
  4042f4:	28a300c8 	slti	v1,a1,200
  4042f8:	14600003 	bnez	v1,404308 <__kernel_standard+0x1108>
  4042fc:	24447804 	addiu	a0,v0,30724
  404300:	3c020046 	lui	v0,0x46
  404304:	2444780c 	addiu	a0,v0,30732
  404308:	3c030049 	lui	v1,0x49
  40430c:	8c62a9e0 	lw	v0,-22048(v1)
  404310:	144003de 	bnez	v0,40528c <__kernel_standard+0x208c>
  404314:	afa40014 	sw	a0,20(sp)
  404318:	3c021000 	lui	v0,0x1000
  40431c:	d4400008 	ldc1	$f0,8(v0)
  404320:	4622003c 	c.lt.d	$f0,$f2
  404324:	00000000 	nop
  404328:	450004e8 	bc1f	4056cc <__kernel_standard+0x24cc>
  40432c:	3c020046 	lui	v0,0x46
  404330:	3c020046 	lui	v0,0x46
  404334:	d4407a98 	ldc1	$f0,31384(v0)
  404338:	3c020049 	lui	v0,0x49
  40433c:	8c43a9e0 	lw	v1,-22048(v0)
  404340:	24020002 	li	v0,2
  404344:	f7a00028 	sdc1	$f0,40(sp)
  404348:	14620244 	bne	v1,v0,404c5c <__kernel_standard+0x1a5c>
  40434c:	46200586 	mov.d	$f22,$f0
  404350:	0c102738 	jal	409ce0 <__errno_location>
  404354:	00000000 	nop
  404358:	24030022 	li	v1,34
  40435c:	08100c94 	j	403250 <__kernel_standard+0x50>
  404360:	ac430000 	sw	v1,0(v0)
  404364:	24030001 	li	v1,1
  404368:	3c040046 	lui	a0,0x46
  40436c:	28a20064 	slti	v0,a1,100
  404370:	f7ac0018 	sdc1	$f12,24(sp)
  404374:	f7ae0020 	sdc1	$f14,32(sp)
  404378:	afa30010 	sw	v1,16(sp)
  40437c:	14400007 	bnez	v0,40439c <__kernel_standard+0x119c>
  404380:	24847678 	addiu	a0,a0,30328
  404384:	3c020046 	lui	v0,0x46
  404388:	28a300c8 	slti	v1,a1,200
  40438c:	14600003 	bnez	v1,40439c <__kernel_standard+0x119c>
  404390:	2444767c 	addiu	a0,v0,30332
  404394:	3c020046 	lui	v0,0x46
  404398:	24447684 	addiu	a0,v0,30340
  40439c:	3c030049 	lui	v1,0x49
  4043a0:	8c62a9e0 	lw	v0,-22048(v1)
  4043a4:	144003d1 	bnez	v0,4052ec <__kernel_standard+0x20ec>
  4043a8:	afa40014 	sw	a0,20(sp)
  4043ac:	3c021000 	lui	v0,0x1000
  4043b0:	d4560008 	ldc1	$f22,8(v0)
  4043b4:	3c020049 	lui	v0,0x49
  4043b8:	8c43a9e0 	lw	v1,-22048(v0)
  4043bc:	24020002 	li	v0,2
  4043c0:	f7b60028 	sdc1	$f22,40(sp)
  4043c4:	1462023b 	bne	v1,v0,404cb4 <__kernel_standard+0x1ab4>
  4043c8:	00000000 	nop
  4043cc:	0c102738 	jal	409ce0 <__errno_location>
  4043d0:	00000000 	nop
  4043d4:	24030021 	li	v1,33
  4043d8:	08100c94 	j	403250 <__kernel_standard+0x50>
  4043dc:	ac430000 	sw	v1,0(v0)
  4043e0:	24030001 	li	v1,1
  4043e4:	3c040046 	lui	a0,0x46
  4043e8:	28a20064 	slti	v0,a1,100
  4043ec:	f7ac0018 	sdc1	$f12,24(sp)
  4043f0:	f7ae0020 	sdc1	$f14,32(sp)
  4043f4:	afa30010 	sw	v1,16(sp)
  4043f8:	14400007 	bnez	v0,404418 <__kernel_standard+0x1218>
  4043fc:	2484768c 	addiu	a0,a0,30348
  404400:	3c020046 	lui	v0,0x46
  404404:	28a300c8 	slti	v1,a1,200
  404408:	14600003 	bnez	v1,404418 <__kernel_standard+0x1218>
  40440c:	24447690 	addiu	a0,v0,30352
  404410:	3c020046 	lui	v0,0x46
  404414:	24447694 	addiu	a0,v0,30356
  404418:	3c030049 	lui	v1,0x49
  40441c:	8c62a9e0 	lw	v0,-22048(v1)
  404420:	144003d0 	bnez	v0,405364 <__kernel_standard+0x2164>
  404424:	afa40014 	sw	a0,20(sp)
  404428:	3c020046 	lui	v0,0x46
  40442c:	d4567aa8 	ldc1	$f22,31400(v0)
  404430:	3c020049 	lui	v0,0x49
  404434:	8c43a9e0 	lw	v1,-22048(v0)
  404438:	24020002 	li	v0,2
  40443c:	f7b60028 	sdc1	$f22,40(sp)
  404440:	14620191 	bne	v1,v0,404a88 <__kernel_standard+0x1888>
  404444:	00000000 	nop
  404448:	0c102738 	jal	409ce0 <__errno_location>
  40444c:	00000000 	nop
  404450:	24030021 	li	v1,33
  404454:	08100c94 	j	403250 <__kernel_standard+0x50>
  404458:	ac430000 	sw	v1,0(v0)
  40445c:	24030001 	li	v1,1
  404460:	3c040046 	lui	a0,0x46
  404464:	28a20064 	slti	v0,a1,100
  404468:	f7ac0018 	sdc1	$f12,24(sp)
  40446c:	f7ae0020 	sdc1	$f14,32(sp)
  404470:	afa30010 	sw	v1,16(sp)
  404474:	14400007 	bnez	v0,404494 <__kernel_standard+0x1294>
  404478:	2484768c 	addiu	a0,a0,30348
  40447c:	3c020046 	lui	v0,0x46
  404480:	28a300c8 	slti	v1,a1,200
  404484:	14600003 	bnez	v1,404494 <__kernel_standard+0x1294>
  404488:	24447690 	addiu	a0,v0,30352
  40448c:	3c020046 	lui	v0,0x46
  404490:	24447694 	addiu	a0,v0,30356
  404494:	3c030049 	lui	v1,0x49
  404498:	8c62a9e0 	lw	v0,-22048(v1)
  40449c:	144003ce 	bnez	v0,4053d8 <__kernel_standard+0x21d8>
  4044a0:	afa40014 	sw	a0,20(sp)
  4044a4:	3c020046 	lui	v0,0x46
  4044a8:	d4567aa8 	ldc1	$f22,31400(v0)
  4044ac:	3c020049 	lui	v0,0x49
  4044b0:	8c43a9e0 	lw	v1,-22048(v0)
  4044b4:	24020002 	li	v0,2
  4044b8:	f7b60028 	sdc1	$f22,40(sp)
  4044bc:	146202f0 	bne	v1,v0,405080 <__kernel_standard+0x1e80>
  4044c0:	00000000 	nop
  4044c4:	0c102738 	jal	409ce0 <__errno_location>
  4044c8:	00000000 	nop
  4044cc:	24030021 	li	v1,33
  4044d0:	08100c94 	j	403250 <__kernel_standard+0x50>
  4044d4:	ac430000 	sw	v1,0(v0)
  4044d8:	24030001 	li	v1,1
  4044dc:	3c040046 	lui	a0,0x46
  4044e0:	28a20064 	slti	v0,a1,100
  4044e4:	f7ac0018 	sdc1	$f12,24(sp)
  4044e8:	f7ae0020 	sdc1	$f14,32(sp)
  4044ec:	afa30010 	sw	v1,16(sp)
  4044f0:	14400007 	bnez	v0,404510 <__kernel_standard+0x1310>
  4044f4:	24847814 	addiu	a0,a0,30740
  4044f8:	3c020046 	lui	v0,0x46
  4044fc:	28a300c8 	slti	v1,a1,200
  404500:	14600003 	bnez	v1,404510 <__kernel_standard+0x1310>
  404504:	24447818 	addiu	a0,v0,30744
  404508:	3c020046 	lui	v0,0x46
  40450c:	24447820 	addiu	a0,v0,30752
  404510:	3c030049 	lui	v1,0x49
  404514:	8c62a9e0 	lw	v0,-22048(v1)
  404518:	14400366 	bnez	v0,4052b4 <__kernel_standard+0x20b4>
  40451c:	afa40014 	sw	a0,20(sp)
  404520:	3c020046 	lui	v0,0x46
  404524:	d4567aa8 	ldc1	$f22,31400(v0)
  404528:	3c020049 	lui	v0,0x49
  40452c:	8c43a9e0 	lw	v1,-22048(v0)
  404530:	24020002 	li	v0,2
  404534:	f7b60028 	sdc1	$f22,40(sp)
  404538:	1462016d 	bne	v1,v0,404af0 <__kernel_standard+0x18f0>
  40453c:	00000000 	nop
  404540:	0c102738 	jal	409ce0 <__errno_location>
  404544:	00000000 	nop
  404548:	24030021 	li	v1,33
  40454c:	08100c94 	j	403250 <__kernel_standard+0x50>
  404550:	ac430000 	sw	v1,0(v0)
  404554:	24030002 	li	v1,2
  404558:	3c040046 	lui	a0,0x46
  40455c:	28a20064 	slti	v0,a1,100
  404560:	f7ac0018 	sdc1	$f12,24(sp)
  404564:	f7ae0020 	sdc1	$f14,32(sp)
  404568:	afa30010 	sw	v1,16(sp)
  40456c:	14400007 	bnez	v0,40458c <__kernel_standard+0x138c>
  404570:	24847814 	addiu	a0,a0,30740
  404574:	3c020046 	lui	v0,0x46
  404578:	28a300c8 	slti	v1,a1,200
  40457c:	14600003 	bnez	v1,40458c <__kernel_standard+0x138c>
  404580:	24447818 	addiu	a0,v0,30744
  404584:	3c020046 	lui	v0,0x46
  404588:	24447820 	addiu	a0,v0,30752
  40458c:	3c030049 	lui	v1,0x49
  404590:	8c62a9e0 	lw	v0,-22048(v1)
  404594:	14400339 	bnez	v0,40527c <__kernel_standard+0x207c>
  404598:	afa40014 	sw	a0,20(sp)
  40459c:	3c020046 	lui	v0,0x46
  4045a0:	d4567aa8 	ldc1	$f22,31400(v0)
  4045a4:	3c020049 	lui	v0,0x49
  4045a8:	8c43a9e0 	lw	v1,-22048(v0)
  4045ac:	24020002 	li	v0,2
  4045b0:	f7b60028 	sdc1	$f22,40(sp)
  4045b4:	14620262 	bne	v1,v0,404f40 <__kernel_standard+0x1d40>
  4045b8:	00000000 	nop
  4045bc:	0c102738 	jal	409ce0 <__errno_location>
  4045c0:	00000000 	nop
  4045c4:	24030022 	li	v1,34
  4045c8:	08100c94 	j	403250 <__kernel_standard+0x50>
  4045cc:	ac430000 	sw	v1,0(v0)
  4045d0:	24030001 	li	v1,1
  4045d4:	3c040046 	lui	a0,0x46
  4045d8:	28a20064 	slti	v0,a1,100
  4045dc:	f7ac0018 	sdc1	$f12,24(sp)
  4045e0:	f7ae0020 	sdc1	$f14,32(sp)
  4045e4:	afa30010 	sw	v1,16(sp)
  4045e8:	14400007 	bnez	v0,404608 <__kernel_standard+0x1408>
  4045ec:	24847828 	addiu	a0,a0,30760
  4045f0:	3c020046 	lui	v0,0x46
  4045f4:	28a300c8 	slti	v1,a1,200
  4045f8:	14600003 	bnez	v1,404608 <__kernel_standard+0x1408>
  4045fc:	24447830 	addiu	a0,v0,30768
  404600:	3c020046 	lui	v0,0x46
  404604:	24447838 	addiu	a0,v0,30776
  404608:	3c030049 	lui	v1,0x49
  40460c:	8c62a9e0 	lw	v0,-22048(v1)
  404610:	1440034f 	bnez	v0,405350 <__kernel_standard+0x2150>
  404614:	afa40014 	sw	a0,20(sp)
  404618:	3c020046 	lui	v0,0x46
  40461c:	d4567a98 	ldc1	$f22,31384(v0)
  404620:	3c020049 	lui	v0,0x49
  404624:	8c43a9e0 	lw	v1,-22048(v0)
  404628:	24020002 	li	v0,2
  40462c:	f7b60028 	sdc1	$f22,40(sp)
  404630:	14620108 	bne	v1,v0,404a54 <__kernel_standard+0x1854>
  404634:	00000000 	nop
  404638:	0c102738 	jal	409ce0 <__errno_location>
  40463c:	00000000 	nop
  404640:	24030021 	li	v1,33
  404644:	08100c94 	j	403250 <__kernel_standard+0x50>
  404648:	ac430000 	sw	v1,0(v0)
  40464c:	d7b60028 	ldc1	$f22,40(sp)
  404650:	f7ac0018 	sdc1	$f12,24(sp)
  404654:	f7ae0020 	sdc1	$f14,32(sp)
  404658:	08100c95 	j	403254 <__kernel_standard+0x54>
  40465c:	4620b006 	mov.d	$f0,$f22
  404660:	24030001 	li	v1,1
  404664:	3c040046 	lui	a0,0x46
  404668:	28a20064 	slti	v0,a1,100
  40466c:	f7ac0018 	sdc1	$f12,24(sp)
  404670:	f7ae0020 	sdc1	$f14,32(sp)
  404674:	afa30010 	sw	v1,16(sp)
  404678:	14400007 	bnez	v0,404698 <__kernel_standard+0x1498>
  40467c:	24847704 	addiu	a0,a0,30468
  404680:	3c020046 	lui	v0,0x46
  404684:	28a300c8 	slti	v1,a1,200
  404688:	14600003 	bnez	v1,404698 <__kernel_standard+0x1498>
  40468c:	2444770c 	addiu	a0,v0,30476
  404690:	3c020046 	lui	v0,0x46
  404694:	24447714 	addiu	a0,v0,30484
  404698:	3c021000 	lui	v0,0x1000
  40469c:	d4400008 	ldc1	$f0,8(v0)
  4046a0:	3c100049 	lui	s0,0x49
  4046a4:	8e03a9e0 	lw	v1,-22048(s0)
  4046a8:	46200583 	div.d	$f22,$f0,$f0
  4046ac:	24020002 	li	v0,2
  4046b0:	afa40014 	sw	a0,20(sp)
  4046b4:	f7b60028 	sdc1	$f22,40(sp)
  4046b8:	14620288 	bne	v1,v0,4050dc <__kernel_standard+0x1edc>
  4046bc:	00000000 	nop
  4046c0:	0c102738 	jal	409ce0 <__errno_location>
  4046c4:	00000000 	nop
  4046c8:	24030021 	li	v1,33
  4046cc:	08100c94 	j	403250 <__kernel_standard+0x50>
  4046d0:	ac430000 	sw	v1,0(v0)
  4046d4:	24030001 	li	v1,1
  4046d8:	3c040046 	lui	a0,0x46
  4046dc:	28a20064 	slti	v0,a1,100
  4046e0:	f7ac0018 	sdc1	$f12,24(sp)
  4046e4:	f7ae0020 	sdc1	$f14,32(sp)
  4046e8:	afa30010 	sw	v1,16(sp)
  4046ec:	14400007 	bnez	v0,40470c <__kernel_standard+0x150c>
  4046f0:	24847840 	addiu	a0,a0,30784
  4046f4:	3c020046 	lui	v0,0x46
  4046f8:	28a300c8 	slti	v1,a1,200
  4046fc:	14600003 	bnez	v1,40470c <__kernel_standard+0x150c>
  404700:	24447848 	addiu	a0,v0,30792
  404704:	3c020046 	lui	v0,0x46
  404708:	24447850 	addiu	a0,v0,30800
  40470c:	3c030049 	lui	v1,0x49
  404710:	8c62a9e0 	lw	v0,-22048(v1)
  404714:	144002d1 	bnez	v0,40525c <__kernel_standard+0x205c>
  404718:	afa40014 	sw	a0,20(sp)
  40471c:	3c021000 	lui	v0,0x1000
  404720:	d4560008 	ldc1	$f22,8(v0)
  404724:	3c020049 	lui	v0,0x49
  404728:	8c43a9e0 	lw	v1,-22048(v0)
  40472c:	24020002 	li	v0,2
  404730:	f7b60028 	sdc1	$f22,40(sp)
  404734:	146201c8 	bne	v1,v0,404e58 <__kernel_standard+0x1c58>
  404738:	00000000 	nop
  40473c:	0c102738 	jal	409ce0 <__errno_location>
  404740:	00000000 	nop
  404744:	24030021 	li	v1,33
  404748:	08100c94 	j	403250 <__kernel_standard+0x50>
  40474c:	ac430000 	sw	v1,0(v0)
  404750:	24030003 	li	v1,3
  404754:	3c040046 	lui	a0,0x46
  404758:	28a20064 	slti	v0,a1,100
  40475c:	f7ac0018 	sdc1	$f12,24(sp)
  404760:	f7ae0020 	sdc1	$f14,32(sp)
  404764:	afa30010 	sw	v1,16(sp)
  404768:	14400007 	bnez	v0,404788 <__kernel_standard+0x1588>
  40476c:	2484771c 	addiu	a0,a0,30492
  404770:	3c020046 	lui	v0,0x46
  404774:	28a300c8 	slti	v1,a1,200
  404778:	14600003 	bnez	v1,404788 <__kernel_standard+0x1588>
  40477c:	24447724 	addiu	a0,v0,30500
  404780:	3c020046 	lui	v0,0x46
  404784:	2444772c 	addiu	a0,v0,30508
  404788:	3c030049 	lui	v1,0x49
  40478c:	8c62a9e0 	lw	v0,-22048(v1)
  404790:	14400326 	bnez	v0,40542c <__kernel_standard+0x222c>
  404794:	afa40014 	sw	a0,20(sp)
  404798:	3c020046 	lui	v0,0x46
  40479c:	d4567a98 	ldc1	$f22,31384(v0)
  4047a0:	3c020049 	lui	v0,0x49
  4047a4:	8c43a9e0 	lw	v1,-22048(v0)
  4047a8:	24020002 	li	v0,2
  4047ac:	f7b60028 	sdc1	$f22,40(sp)
  4047b0:	1462017d 	bne	v1,v0,404da8 <__kernel_standard+0x1ba8>
  4047b4:	00000000 	nop
  4047b8:	0c102738 	jal	409ce0 <__errno_location>
  4047bc:	00000000 	nop
  4047c0:	24030022 	li	v1,34
  4047c4:	08100c94 	j	403250 <__kernel_standard+0x50>
  4047c8:	ac430000 	sw	v1,0(v0)
  4047cc:	24030003 	li	v1,3
  4047d0:	3c040046 	lui	a0,0x46
  4047d4:	28a20064 	slti	v0,a1,100
  4047d8:	f7ac0018 	sdc1	$f12,24(sp)
  4047dc:	f7ae0020 	sdc1	$f14,32(sp)
  4047e0:	afa30010 	sw	v1,16(sp)
  4047e4:	14400007 	bnez	v0,404804 <__kernel_standard+0x1604>
  4047e8:	24847734 	addiu	a0,a0,30516
  4047ec:	3c020046 	lui	v0,0x46
  4047f0:	28a300c8 	slti	v1,a1,200
  4047f4:	14600003 	bnez	v1,404804 <__kernel_standard+0x1604>
  4047f8:	24447738 	addiu	a0,v0,30520
  4047fc:	3c020046 	lui	v0,0x46
  404800:	24447740 	addiu	a0,v0,30528
  404804:	3c030049 	lui	v1,0x49
  404808:	8c62a9e0 	lw	v0,-22048(v1)
  40480c:	1440030b 	bnez	v0,40543c <__kernel_standard+0x223c>
  404810:	afa40014 	sw	a0,20(sp)
  404814:	3c020046 	lui	v0,0x46
  404818:	d4567a98 	ldc1	$f22,31384(v0)
  40481c:	3c020049 	lui	v0,0x49
  404820:	8c43a9e0 	lw	v1,-22048(v0)
  404824:	24020002 	li	v0,2
  404828:	f7b60028 	sdc1	$f22,40(sp)
  40482c:	146201fe 	bne	v1,v0,405028 <__kernel_standard+0x1e28>
  404830:	00000000 	nop
  404834:	0c102738 	jal	409ce0 <__errno_location>
  404838:	00000000 	nop
  40483c:	24030022 	li	v1,34
  404840:	08100c94 	j	403250 <__kernel_standard+0x50>
  404844:	ac430000 	sw	v1,0(v0)
  404848:	24030001 	li	v1,1
  40484c:	3c040046 	lui	a0,0x46
  404850:	28a20064 	slti	v0,a1,100
  404854:	f7ac0018 	sdc1	$f12,24(sp)
  404858:	f7ae0020 	sdc1	$f14,32(sp)
  40485c:	afa30010 	sw	v1,16(sp)
  404860:	14400007 	bnez	v0,404880 <__kernel_standard+0x1680>
  404864:	248476bc 	addiu	a0,a0,30396
  404868:	3c020046 	lui	v0,0x46
  40486c:	28a300c8 	slti	v1,a1,200
  404870:	14600003 	bnez	v1,404880 <__kernel_standard+0x1680>
  404874:	244476c0 	addiu	a0,v0,30400
  404878:	3c020046 	lui	v0,0x46
  40487c:	244476c4 	addiu	a0,v0,30404
  404880:	3c030049 	lui	v1,0x49
  404884:	8c62a9e0 	lw	v0,-22048(v1)
  404888:	1440026c 	bnez	v0,40523c <__kernel_standard+0x203c>
  40488c:	afa40014 	sw	a0,20(sp)
  404890:	3c020046 	lui	v0,0x46
  404894:	d4567aa8 	ldc1	$f22,31400(v0)
  404898:	3c020049 	lui	v0,0x49
  40489c:	8c43a9e0 	lw	v1,-22048(v0)
  4048a0:	24020002 	li	v0,2
  4048a4:	f7b60028 	sdc1	$f22,40(sp)
  4048a8:	14620225 	bne	v1,v0,405140 <__kernel_standard+0x1f40>
  4048ac:	00000000 	nop
  4048b0:	0c102738 	jal	409ce0 <__errno_location>
  4048b4:	00000000 	nop
  4048b8:	24030021 	li	v1,33
  4048bc:	08100c94 	j	403250 <__kernel_standard+0x50>
  4048c0:	ac430000 	sw	v1,0(v0)
  4048c4:	24030003 	li	v1,3
  4048c8:	3c040046 	lui	a0,0x46
  4048cc:	28a20064 	slti	v0,a1,100
  4048d0:	f7ac0018 	sdc1	$f12,24(sp)
  4048d4:	f7ae0020 	sdc1	$f14,32(sp)
  4048d8:	afa30010 	sw	v1,16(sp)
  4048dc:	14400007 	bnez	v0,4048fc <__kernel_standard+0x16fc>
  4048e0:	24847858 	addiu	a0,a0,30808
  4048e4:	3c020046 	lui	v0,0x46
  4048e8:	28a300c8 	slti	v1,a1,200
  4048ec:	14600003 	bnez	v1,4048fc <__kernel_standard+0x16fc>
  4048f0:	24447860 	addiu	a0,v0,30816
  4048f4:	3c020046 	lui	v0,0x46
  4048f8:	24447868 	addiu	a0,v0,30824
  4048fc:	3c030049 	lui	v1,0x49
  404900:	8c62a9e0 	lw	v0,-22048(v1)
  404904:	14400245 	bnez	v0,40521c <__kernel_standard+0x201c>
  404908:	afa40014 	sw	a0,20(sp)
  40490c:	3c020046 	lui	v0,0x46
  404910:	d4567a98 	ldc1	$f22,31384(v0)
  404914:	3c020049 	lui	v0,0x49
  404918:	8c43a9e0 	lw	v1,-22048(v0)
  40491c:	24020002 	li	v0,2
  404920:	f7b60028 	sdc1	$f22,40(sp)
  404924:	14620233 	bne	v1,v0,4051f4 <__kernel_standard+0x1ff4>
  404928:	00000000 	nop
  40492c:	0c102738 	jal	409ce0 <__errno_location>
  404930:	00000000 	nop
  404934:	24030022 	li	v1,34
  404938:	08100c94 	j	403250 <__kernel_standard+0x50>
  40493c:	ac430000 	sw	v1,0(v0)
  404940:	24030001 	li	v1,1
  404944:	3c040046 	lui	a0,0x46
  404948:	28a20064 	slti	v0,a1,100
  40494c:	f7ac0018 	sdc1	$f12,24(sp)
  404950:	f7ae0020 	sdc1	$f14,32(sp)
  404954:	afa30010 	sw	v1,16(sp)
  404958:	14400007 	bnez	v0,404978 <__kernel_standard+0x1778>
  40495c:	24847660 	addiu	a0,a0,30304
  404960:	3c020046 	lui	v0,0x46
  404964:	28a300c8 	slti	v1,a1,200
  404968:	14600003 	bnez	v1,404978 <__kernel_standard+0x1778>
  40496c:	24447664 	addiu	a0,v0,30308
  404970:	3c020046 	lui	v0,0x46
  404974:	24447668 	addiu	a0,v0,30312
  404978:	3c030049 	lui	v1,0x49
  40497c:	8c62a9e0 	lw	v0,-22048(v1)
  404980:	1440026a 	bnez	v0,40532c <__kernel_standard+0x212c>
  404984:	afa40014 	sw	a0,20(sp)
  404988:	3c020046 	lui	v0,0x46
  40498c:	d4567aa8 	ldc1	$f22,31400(v0)
  404990:	3c020049 	lui	v0,0x49
  404994:	8c43a9e0 	lw	v1,-22048(v0)
  404998:	24020002 	li	v0,2
  40499c:	f7b60028 	sdc1	$f22,40(sp)
  4049a0:	14620012 	bne	v1,v0,4049ec <__kernel_standard+0x17ec>
  4049a4:	00000000 	nop
  4049a8:	0c102738 	jal	409ce0 <__errno_location>
  4049ac:	00000000 	nop
  4049b0:	24030021 	li	v1,33
  4049b4:	08100c94 	j	403250 <__kernel_standard+0x50>
  4049b8:	ac430000 	sw	v1,0(v0)
  4049bc:	0c1016e4 	jal	405b90 <__matherr>
  4049c0:	27a40010 	addiu	a0,sp,16
  4049c4:	144002ba 	bnez	v0,4054b0 <__kernel_standard+0x22b0>
  4049c8:	8e02a9e0 	lw	v0,-22048(s0)
  4049cc:	104003ee 	beqz	v0,405988 <__kernel_standard+0x2788>
  4049d0:	3c020049 	lui	v0,0x49
  4049d4:	0c102738 	jal	409ce0 <__errno_location>
  4049d8:	00000000 	nop
  4049dc:	d7b60028 	ldc1	$f22,40(sp)
  4049e0:	24030021 	li	v1,33
  4049e4:	08100c94 	j	403250 <__kernel_standard+0x50>
  4049e8:	ac430000 	sw	v1,0(v0)
  4049ec:	0c1016e4 	jal	405b90 <__matherr>
  4049f0:	27a40010 	addiu	a0,sp,16
  4049f4:	144002c0 	bnez	v0,4054f8 <__kernel_standard+0x22f8>
  4049f8:	3c020049 	lui	v0,0x49
  4049fc:	8c43a9e0 	lw	v1,-22048(v0)
  404a00:	106003f9 	beqz	v1,4059e8 <__kernel_standard+0x27e8>
  404a04:	3c020049 	lui	v0,0x49
  404a08:	0c102738 	jal	409ce0 <__errno_location>
  404a0c:	00000000 	nop
  404a10:	d7b60028 	ldc1	$f22,40(sp)
  404a14:	24030021 	li	v1,33
  404a18:	08100c94 	j	403250 <__kernel_standard+0x50>
  404a1c:	ac430000 	sw	v1,0(v0)
  404a20:	0c1016e4 	jal	405b90 <__matherr>
  404a24:	27a40010 	addiu	a0,sp,16
  404a28:	144002a7 	bnez	v0,4054c8 <__kernel_standard+0x22c8>
  404a2c:	3c020049 	lui	v0,0x49
  404a30:	8c43a9e0 	lw	v1,-22048(v0)
  404a34:	106003fc 	beqz	v1,405a28 <__kernel_standard+0x2828>
  404a38:	3c020049 	lui	v0,0x49
  404a3c:	0c102738 	jal	409ce0 <__errno_location>
  404a40:	00000000 	nop
  404a44:	d7b60028 	ldc1	$f22,40(sp)
  404a48:	24030021 	li	v1,33
  404a4c:	08100c94 	j	403250 <__kernel_standard+0x50>
  404a50:	ac430000 	sw	v1,0(v0)
  404a54:	0c1016e4 	jal	405b90 <__matherr>
  404a58:	27a40010 	addiu	a0,sp,16
  404a5c:	144002a0 	bnez	v0,4054e0 <__kernel_standard+0x22e0>
  404a60:	3c020049 	lui	v0,0x49
  404a64:	8c43a9e0 	lw	v1,-22048(v0)
  404a68:	10600438 	beqz	v1,405b4c <__kernel_standard+0x294c>
  404a6c:	3c020049 	lui	v0,0x49
  404a70:	0c102738 	jal	409ce0 <__errno_location>
  404a74:	00000000 	nop
  404a78:	d7b60028 	ldc1	$f22,40(sp)
  404a7c:	24030021 	li	v1,33
  404a80:	08100c94 	j	403250 <__kernel_standard+0x50>
  404a84:	ac430000 	sw	v1,0(v0)
  404a88:	0c1016e4 	jal	405b90 <__matherr>
  404a8c:	27a40010 	addiu	a0,sp,16
  404a90:	1440028a 	bnez	v0,4054bc <__kernel_standard+0x22bc>
  404a94:	3c020049 	lui	v0,0x49
  404a98:	8c43a9e0 	lw	v1,-22048(v0)
  404a9c:	106003da 	beqz	v1,405a08 <__kernel_standard+0x2808>
  404aa0:	3c020049 	lui	v0,0x49
  404aa4:	0c102738 	jal	409ce0 <__errno_location>
  404aa8:	00000000 	nop
  404aac:	d7b60028 	ldc1	$f22,40(sp)
  404ab0:	24030021 	li	v1,33
  404ab4:	08100c94 	j	403250 <__kernel_standard+0x50>
  404ab8:	ac430000 	sw	v1,0(v0)
  404abc:	0c1016e4 	jal	405b90 <__matherr>
  404ac0:	27a40010 	addiu	a0,sp,16
  404ac4:	14400289 	bnez	v0,4054ec <__kernel_standard+0x22ec>
  404ac8:	3c020049 	lui	v0,0x49
  404acc:	8c43a9e0 	lw	v1,-22048(v0)
  404ad0:	106003bd 	beqz	v1,4059c8 <__kernel_standard+0x27c8>
  404ad4:	3c020049 	lui	v0,0x49
  404ad8:	0c102738 	jal	409ce0 <__errno_location>
  404adc:	00000000 	nop
  404ae0:	d7b60028 	ldc1	$f22,40(sp)
  404ae4:	24030021 	li	v1,33
  404ae8:	08100c94 	j	403250 <__kernel_standard+0x50>
  404aec:	ac430000 	sw	v1,0(v0)
  404af0:	0c1016e4 	jal	405b90 <__matherr>
  404af4:	27a40010 	addiu	a0,sp,16
  404af8:	14400276 	bnez	v0,4054d4 <__kernel_standard+0x22d4>
  404afc:	3c020049 	lui	v0,0x49
  404b00:	8c43a9e0 	lw	v1,-22048(v0)
  404b04:	10600409 	beqz	v1,405b2c <__kernel_standard+0x292c>
  404b08:	3c020049 	lui	v0,0x49
  404b0c:	0c102738 	jal	409ce0 <__errno_location>
  404b10:	00000000 	nop
  404b14:	d7b60028 	ldc1	$f22,40(sp)
  404b18:	24030021 	li	v1,33
  404b1c:	08100c94 	j	403250 <__kernel_standard+0x50>
  404b20:	ac430000 	sw	v1,0(v0)
  404b24:	0c1016e4 	jal	405b90 <__matherr>
  404b28:	27a40010 	addiu	a0,sp,16
  404b2c:	144002b7 	bnez	v0,40560c <__kernel_standard+0x240c>
  404b30:	8e02a9e0 	lw	v0,-22048(s0)
  404b34:	10400353 	beqz	v0,405884 <__kernel_standard+0x2684>
  404b38:	3c020049 	lui	v0,0x49
  404b3c:	0c102738 	jal	409ce0 <__errno_location>
  404b40:	00000000 	nop
  404b44:	d7b60028 	ldc1	$f22,40(sp)
  404b48:	24030021 	li	v1,33
  404b4c:	08100c94 	j	403250 <__kernel_standard+0x50>
  404b50:	ac430000 	sw	v1,0(v0)
  404b54:	0c1016e4 	jal	405b90 <__matherr>
  404b58:	27a40010 	addiu	a0,sp,16
  404b5c:	144002cf 	bnez	v0,40569c <__kernel_standard+0x249c>
  404b60:	00000000 	nop
  404b64:	0c102738 	jal	409ce0 <__errno_location>
  404b68:	00000000 	nop
  404b6c:	d7b60028 	ldc1	$f22,40(sp)
  404b70:	24030022 	li	v1,34
  404b74:	08100c94 	j	403250 <__kernel_standard+0x50>
  404b78:	ac430000 	sw	v1,0(v0)
  404b7c:	0c1016e4 	jal	405b90 <__matherr>
  404b80:	27a40010 	addiu	a0,sp,16
  404b84:	14400274 	bnez	v0,405558 <__kernel_standard+0x2358>
  404b88:	00000000 	nop
  404b8c:	0c102738 	jal	409ce0 <__errno_location>
  404b90:	00000000 	nop
  404b94:	d7b60028 	ldc1	$f22,40(sp)
  404b98:	24030022 	li	v1,34
  404b9c:	08100c94 	j	403250 <__kernel_standard+0x50>
  404ba0:	ac430000 	sw	v1,0(v0)
  404ba4:	0c1016e4 	jal	405b90 <__matherr>
  404ba8:	27a40010 	addiu	a0,sp,16
  404bac:	144002a0 	bnez	v0,405630 <__kernel_standard+0x2430>
  404bb0:	3c020049 	lui	v0,0x49
  404bb4:	8c43a9e0 	lw	v1,-22048(v0)
  404bb8:	10600363 	beqz	v1,405948 <__kernel_standard+0x2748>
  404bbc:	3c020049 	lui	v0,0x49
  404bc0:	0c102738 	jal	409ce0 <__errno_location>
  404bc4:	00000000 	nop
  404bc8:	d7b60028 	ldc1	$f22,40(sp)
  404bcc:	24030021 	li	v1,33
  404bd0:	08100c94 	j	403250 <__kernel_standard+0x50>
  404bd4:	ac430000 	sw	v1,0(v0)
  404bd8:	0c1016e4 	jal	405b90 <__matherr>
  404bdc:	27a40010 	addiu	a0,sp,16
  404be0:	14400254 	bnez	v0,405534 <__kernel_standard+0x2334>
  404be4:	00000000 	nop
  404be8:	0c102738 	jal	409ce0 <__errno_location>
  404bec:	00000000 	nop
  404bf0:	d7b60028 	ldc1	$f22,40(sp)
  404bf4:	24030021 	li	v1,33
  404bf8:	08100c94 	j	403250 <__kernel_standard+0x50>
  404bfc:	ac430000 	sw	v1,0(v0)
  404c00:	0c1016e4 	jal	405b90 <__matherr>
  404c04:	27a40010 	addiu	a0,sp,16
  404c08:	14400295 	bnez	v0,405660 <__kernel_standard+0x2460>
  404c0c:	3c020049 	lui	v0,0x49
  404c10:	8c43a9e0 	lw	v1,-22048(v0)
  404c14:	106002ed 	beqz	v1,4057cc <__kernel_standard+0x25cc>
  404c18:	3c020049 	lui	v0,0x49
  404c1c:	0c102738 	jal	409ce0 <__errno_location>
  404c20:	00000000 	nop
  404c24:	d7b60028 	ldc1	$f22,40(sp)
  404c28:	24030021 	li	v1,33
  404c2c:	08100c94 	j	403250 <__kernel_standard+0x50>
  404c30:	ac430000 	sw	v1,0(v0)
  404c34:	0c1016e4 	jal	405b90 <__matherr>
  404c38:	27a40010 	addiu	a0,sp,16
  404c3c:	14400252 	bnez	v0,405588 <__kernel_standard+0x2388>
  404c40:	00000000 	nop
  404c44:	0c102738 	jal	409ce0 <__errno_location>
  404c48:	00000000 	nop
  404c4c:	d7b60028 	ldc1	$f22,40(sp)
  404c50:	24030021 	li	v1,33
  404c54:	08100c94 	j	403250 <__kernel_standard+0x50>
  404c58:	ac430000 	sw	v1,0(v0)
  404c5c:	0c1016e4 	jal	405b90 <__matherr>
  404c60:	27a40010 	addiu	a0,sp,16
  404c64:	1440026f 	bnez	v0,405624 <__kernel_standard+0x2424>
  404c68:	00000000 	nop
  404c6c:	0c102738 	jal	409ce0 <__errno_location>
  404c70:	00000000 	nop
  404c74:	d7b60028 	ldc1	$f22,40(sp)
  404c78:	24030022 	li	v1,34
  404c7c:	08100c94 	j	403250 <__kernel_standard+0x50>
  404c80:	ac430000 	sw	v1,0(v0)
  404c84:	0c1016e4 	jal	405b90 <__matherr>
  404c88:	27a40010 	addiu	a0,sp,16
  404c8c:	1440025c 	bnez	v0,405600 <__kernel_standard+0x2400>
  404c90:	8e02a9e0 	lw	v0,-22048(s0)
  404c94:	104002f0 	beqz	v0,405858 <__kernel_standard+0x2658>
  404c98:	3c100049 	lui	s0,0x49
  404c9c:	0c102738 	jal	409ce0 <__errno_location>
  404ca0:	00000000 	nop
  404ca4:	d7b60028 	ldc1	$f22,40(sp)
  404ca8:	24030022 	li	v1,34
  404cac:	08100c94 	j	403250 <__kernel_standard+0x50>
  404cb0:	ac430000 	sw	v1,0(v0)
  404cb4:	0c1016e4 	jal	405b90 <__matherr>
  404cb8:	27a40010 	addiu	a0,sp,16
  404cbc:	1440027d 	bnez	v0,4056b4 <__kernel_standard+0x24b4>
  404cc0:	3c020049 	lui	v0,0x49
  404cc4:	8c43a9e0 	lw	v1,-22048(v0)
  404cc8:	10600327 	beqz	v1,405968 <__kernel_standard+0x2768>
  404ccc:	3c020049 	lui	v0,0x49
  404cd0:	0c102738 	jal	409ce0 <__errno_location>
  404cd4:	00000000 	nop
  404cd8:	d7b60028 	ldc1	$f22,40(sp)
  404cdc:	24030021 	li	v1,33
  404ce0:	08100c94 	j	403250 <__kernel_standard+0x50>
  404ce4:	ac430000 	sw	v1,0(v0)
  404ce8:	0c1016e4 	jal	405b90 <__matherr>
  404cec:	27a40010 	addiu	a0,sp,16
  404cf0:	14400207 	bnez	v0,405510 <__kernel_standard+0x2310>
  404cf4:	3c020049 	lui	v0,0x49
  404cf8:	8c43a9e0 	lw	v1,-22048(v0)
  404cfc:	10600383 	beqz	v1,405b0c <__kernel_standard+0x290c>
  404d00:	3c020049 	lui	v0,0x49
  404d04:	0c102738 	jal	409ce0 <__errno_location>
  404d08:	00000000 	nop
  404d0c:	d7b60028 	ldc1	$f22,40(sp)
  404d10:	24030021 	li	v1,33
  404d14:	08100c94 	j	403250 <__kernel_standard+0x50>
  404d18:	ac430000 	sw	v1,0(v0)
  404d1c:	0c1016e4 	jal	405b90 <__matherr>
  404d20:	27a40010 	addiu	a0,sp,16
  404d24:	14400248 	bnez	v0,405648 <__kernel_standard+0x2448>
  404d28:	3c020049 	lui	v0,0x49
  404d2c:	8c43a9e0 	lw	v1,-22048(v0)
  404d30:	10600296 	beqz	v1,40578c <__kernel_standard+0x258c>
  404d34:	3c020049 	lui	v0,0x49
  404d38:	0c102738 	jal	409ce0 <__errno_location>
  404d3c:	00000000 	nop
  404d40:	d7b60028 	ldc1	$f22,40(sp)
  404d44:	24030021 	li	v1,33
  404d48:	08100c94 	j	403250 <__kernel_standard+0x50>
  404d4c:	ac430000 	sw	v1,0(v0)
  404d50:	0c1016e4 	jal	405b90 <__matherr>
  404d54:	27a40010 	addiu	a0,sp,16
  404d58:	1440021d 	bnez	v0,4055d0 <__kernel_standard+0x23d0>
  404d5c:	8e02a9e0 	lw	v0,-22048(s0)
  404d60:	104002d8 	beqz	v0,4058c4 <__kernel_standard+0x26c4>
  404d64:	3c100049 	lui	s0,0x49
  404d68:	0c102738 	jal	409ce0 <__errno_location>
  404d6c:	00000000 	nop
  404d70:	d7b60028 	ldc1	$f22,40(sp)
  404d74:	24030022 	li	v1,34
  404d78:	08100c94 	j	403250 <__kernel_standard+0x50>
  404d7c:	ac430000 	sw	v1,0(v0)
  404d80:	0c1016e4 	jal	405b90 <__matherr>
  404d84:	27a40010 	addiu	a0,sp,16
  404d88:	144001ed 	bnez	v0,405540 <__kernel_standard+0x2340>
  404d8c:	00000000 	nop
  404d90:	0c102738 	jal	409ce0 <__errno_location>
  404d94:	00000000 	nop
  404d98:	d7b60028 	ldc1	$f22,40(sp)
  404d9c:	24030022 	li	v1,34
  404da0:	08100c94 	j	403250 <__kernel_standard+0x50>
  404da4:	ac430000 	sw	v1,0(v0)
  404da8:	0c1016e4 	jal	405b90 <__matherr>
  404dac:	27a40010 	addiu	a0,sp,16
  404db0:	14400234 	bnez	v0,405684 <__kernel_standard+0x2484>
  404db4:	00000000 	nop
  404db8:	0c102738 	jal	409ce0 <__errno_location>
  404dbc:	00000000 	nop
  404dc0:	d7b60028 	ldc1	$f22,40(sp)
  404dc4:	24030022 	li	v1,34
  404dc8:	08100c94 	j	403250 <__kernel_standard+0x50>
  404dcc:	ac430000 	sw	v1,0(v0)
  404dd0:	0c1016e4 	jal	405b90 <__matherr>
  404dd4:	27a40010 	addiu	a0,sp,16
  404dd8:	144001f1 	bnez	v0,4055a0 <__kernel_standard+0x23a0>
  404ddc:	8e02a9e0 	lw	v0,-22048(s0)
  404de0:	104002ce 	beqz	v0,40591c <__kernel_standard+0x271c>
  404de4:	3c100049 	lui	s0,0x49
  404de8:	0c102738 	jal	409ce0 <__errno_location>
  404dec:	00000000 	nop
  404df0:	d7b60028 	ldc1	$f22,40(sp)
  404df4:	24030022 	li	v1,34
  404df8:	08100c94 	j	403250 <__kernel_standard+0x50>
  404dfc:	ac430000 	sw	v1,0(v0)
  404e00:	0c1016e4 	jal	405b90 <__matherr>
  404e04:	27a40010 	addiu	a0,sp,16
  404e08:	144001f7 	bnez	v0,4055e8 <__kernel_standard+0x23e8>
  404e0c:	00000000 	nop
  404e10:	0c102738 	jal	409ce0 <__errno_location>
  404e14:	00000000 	nop
  404e18:	d7b60028 	ldc1	$f22,40(sp)
  404e1c:	24030022 	li	v1,34
  404e20:	08100c94 	j	403250 <__kernel_standard+0x50>
  404e24:	ac430000 	sw	v1,0(v0)
  404e28:	0c1016e4 	jal	405b90 <__matherr>
  404e2c:	27a40010 	addiu	a0,sp,16
  404e30:	144001ba 	bnez	v0,40551c <__kernel_standard+0x231c>
  404e34:	8e02a9e0 	lw	v0,-22048(s0)
  404e38:	10400303 	beqz	v0,405a48 <__kernel_standard+0x2848>
  404e3c:	3c020049 	lui	v0,0x49
  404e40:	0c102738 	jal	409ce0 <__errno_location>
  404e44:	00000000 	nop
  404e48:	d7b60028 	ldc1	$f22,40(sp)
  404e4c:	24030021 	li	v1,33
  404e50:	08100c94 	j	403250 <__kernel_standard+0x50>
  404e54:	ac430000 	sw	v1,0(v0)
  404e58:	0c1016e4 	jal	405b90 <__matherr>
  404e5c:	27a40010 	addiu	a0,sp,16
  404e60:	14400211 	bnez	v0,4056a8 <__kernel_standard+0x24a8>
  404e64:	3c020049 	lui	v0,0x49
  404e68:	8c43a9e0 	lw	v1,-22048(v0)
  404e6c:	106002ce 	beqz	v1,4059a8 <__kernel_standard+0x27a8>
  404e70:	3c020049 	lui	v0,0x49
  404e74:	0c102738 	jal	409ce0 <__errno_location>
  404e78:	00000000 	nop
  404e7c:	d7b60028 	ldc1	$f22,40(sp)
  404e80:	24030021 	li	v1,33
  404e84:	08100c94 	j	403250 <__kernel_standard+0x50>
  404e88:	ac430000 	sw	v1,0(v0)
  404e8c:	0c1016e4 	jal	405b90 <__matherr>
  404e90:	27a40010 	addiu	a0,sp,16
  404e94:	144001b6 	bnez	v0,405570 <__kernel_standard+0x2370>
  404e98:	00000000 	nop
  404e9c:	0c102738 	jal	409ce0 <__errno_location>
  404ea0:	00000000 	nop
  404ea4:	d7b60028 	ldc1	$f22,40(sp)
  404ea8:	24030022 	li	v1,34
  404eac:	08100c94 	j	403250 <__kernel_standard+0x50>
  404eb0:	ac430000 	sw	v1,0(v0)
  404eb4:	0c1016e4 	jal	405b90 <__matherr>
  404eb8:	27a40010 	addiu	a0,sp,16
  404ebc:	144001df 	bnez	v0,40563c <__kernel_standard+0x243c>
  404ec0:	3c020049 	lui	v0,0x49
  404ec4:	8c43a9e0 	lw	v1,-22048(v0)
  404ec8:	10600228 	beqz	v1,40576c <__kernel_standard+0x256c>
  404ecc:	3c020049 	lui	v0,0x49
  404ed0:	0c102738 	jal	409ce0 <__errno_location>
  404ed4:	00000000 	nop
  404ed8:	d7b60028 	ldc1	$f22,40(sp)
  404edc:	24030021 	li	v1,33
  404ee0:	08100c94 	j	403250 <__kernel_standard+0x50>
  404ee4:	ac430000 	sw	v1,0(v0)
  404ee8:	0c1016e4 	jal	405b90 <__matherr>
  404eec:	27a40010 	addiu	a0,sp,16
  404ef0:	1440016c 	bnez	v0,4054a4 <__kernel_standard+0x22a4>
  404ef4:	00000000 	nop
  404ef8:	0c102738 	jal	409ce0 <__errno_location>
  404efc:	00000000 	nop
  404f00:	d7b60028 	ldc1	$f22,40(sp)
  404f04:	24030022 	li	v1,34
  404f08:	08100c94 	j	403250 <__kernel_standard+0x50>
  404f0c:	ac430000 	sw	v1,0(v0)
  404f10:	0c1016e4 	jal	405b90 <__matherr>
  404f14:	27a40010 	addiu	a0,sp,16
  404f18:	14400192 	bnez	v0,405564 <__kernel_standard+0x2364>
  404f1c:	8e02a9e0 	lw	v0,-22048(s0)
  404f20:	10400273 	beqz	v0,4058f0 <__kernel_standard+0x26f0>
  404f24:	3c100049 	lui	s0,0x49
  404f28:	0c102738 	jal	409ce0 <__errno_location>
  404f2c:	00000000 	nop
  404f30:	d7b60028 	ldc1	$f22,40(sp)
  404f34:	24030022 	li	v1,34
  404f38:	08100c94 	j	403250 <__kernel_standard+0x50>
  404f3c:	ac430000 	sw	v1,0(v0)
  404f40:	0c1016e4 	jal	405b90 <__matherr>
  404f44:	27a40010 	addiu	a0,sp,16
  404f48:	144001c8 	bnez	v0,40566c <__kernel_standard+0x246c>
  404f4c:	3c020049 	lui	v0,0x49
  404f50:	8c43a9e0 	lw	v1,-22048(v0)
  404f54:	10600225 	beqz	v1,4057ec <__kernel_standard+0x25ec>
  404f58:	3c020049 	lui	v0,0x49
  404f5c:	0c102738 	jal	409ce0 <__errno_location>
  404f60:	00000000 	nop
  404f64:	d7b60028 	ldc1	$f22,40(sp)
  404f68:	24030021 	li	v1,33
  404f6c:	08100c94 	j	403250 <__kernel_standard+0x50>
  404f70:	ac430000 	sw	v1,0(v0)
  404f74:	0c1016e4 	jal	405b90 <__matherr>
  404f78:	27a40010 	addiu	a0,sp,16
  404f7c:	1440019d 	bnez	v0,4055f4 <__kernel_standard+0x23f4>
  404f80:	8e02a9e0 	lw	v0,-22048(s0)
  404f84:	10400229 	beqz	v0,40582c <__kernel_standard+0x262c>
  404f88:	3c100049 	lui	s0,0x49
  404f8c:	0c102738 	jal	409ce0 <__errno_location>
  404f90:	00000000 	nop
  404f94:	d7b60028 	ldc1	$f22,40(sp)
  404f98:	24030022 	li	v1,34
  404f9c:	08100c94 	j	403250 <__kernel_standard+0x50>
  404fa0:	ac430000 	sw	v1,0(v0)
  404fa4:	0c1016e4 	jal	405b90 <__matherr>
  404fa8:	27a40010 	addiu	a0,sp,16
  404fac:	14400173 	bnez	v0,40557c <__kernel_standard+0x237c>
  404fb0:	00000000 	nop
  404fb4:	0c102738 	jal	409ce0 <__errno_location>
  404fb8:	00000000 	nop
  404fbc:	d7b60028 	ldc1	$f22,40(sp)
  404fc0:	24030022 	li	v1,34
  404fc4:	08100c94 	j	403250 <__kernel_standard+0x50>
  404fc8:	ac430000 	sw	v1,0(v0)
  404fcc:	0c1016e4 	jal	405b90 <__matherr>
  404fd0:	27a40010 	addiu	a0,sp,16
  404fd4:	1440014b 	bnez	v0,405504 <__kernel_standard+0x2304>
  404fd8:	3c020049 	lui	v0,0x49
  404fdc:	8c43a9e0 	lw	v1,-22048(v0)
  404fe0:	106002c2 	beqz	v1,405aec <__kernel_standard+0x28ec>
  404fe4:	3c020049 	lui	v0,0x49
  404fe8:	0c102738 	jal	409ce0 <__errno_location>
  404fec:	00000000 	nop
  404ff0:	d7b60028 	ldc1	$f22,40(sp)
  404ff4:	24030021 	li	v1,33
  404ff8:	08100c94 	j	403250 <__kernel_standard+0x50>
  404ffc:	ac430000 	sw	v1,0(v0)
  405000:	0c1016e4 	jal	405b90 <__matherr>
  405004:	27a40010 	addiu	a0,sp,16
  405008:	14400183 	bnez	v0,405618 <__kernel_standard+0x2418>
  40500c:	00000000 	nop
  405010:	0c102738 	jal	409ce0 <__errno_location>
  405014:	00000000 	nop
  405018:	d7b60028 	ldc1	$f22,40(sp)
  40501c:	24030022 	li	v1,34
  405020:	08100c94 	j	403250 <__kernel_standard+0x50>
  405024:	ac430000 	sw	v1,0(v0)
  405028:	0c1016e4 	jal	405b90 <__matherr>
  40502c:	27a40010 	addiu	a0,sp,16
  405030:	144001a3 	bnez	v0,4056c0 <__kernel_standard+0x24c0>
  405034:	00000000 	nop
  405038:	0c102738 	jal	409ce0 <__errno_location>
  40503c:	00000000 	nop
  405040:	d7b60028 	ldc1	$f22,40(sp)
  405044:	24030022 	li	v1,34
  405048:	08100c94 	j	403250 <__kernel_standard+0x50>
  40504c:	ac430000 	sw	v1,0(v0)
  405050:	0c1016e4 	jal	405b90 <__matherr>
  405054:	27a40010 	addiu	a0,sp,16
  405058:	14400160 	bnez	v0,4055dc <__kernel_standard+0x23dc>
  40505c:	8e02a9e0 	lw	v0,-22048(s0)
  405060:	10400294 	beqz	v0,405ab4 <__kernel_standard+0x28b4>
  405064:	3c020049 	lui	v0,0x49
  405068:	d7b60028 	ldc1	$f22,40(sp)
  40506c:	0c102738 	jal	409ce0 <__errno_location>
  405070:	00000000 	nop
  405074:	24030021 	li	v1,33
  405078:	08100c94 	j	403250 <__kernel_standard+0x50>
  40507c:	ac430000 	sw	v1,0(v0)
  405080:	0c1016e4 	jal	405b90 <__matherr>
  405084:	27a40010 	addiu	a0,sp,16
  405088:	14400148 	bnez	v0,4055ac <__kernel_standard+0x23ac>
  40508c:	3c020049 	lui	v0,0x49
  405090:	8c43a9e0 	lw	v1,-22048(v0)
  405094:	10600203 	beqz	v1,4058a4 <__kernel_standard+0x26a4>
  405098:	3c020049 	lui	v0,0x49
  40509c:	0c102738 	jal	409ce0 <__errno_location>
  4050a0:	00000000 	nop
  4050a4:	d7b60028 	ldc1	$f22,40(sp)
  4050a8:	24030021 	li	v1,33
  4050ac:	08100c94 	j	403250 <__kernel_standard+0x50>
  4050b0:	ac430000 	sw	v1,0(v0)
  4050b4:	0c1016e4 	jal	405b90 <__matherr>
  4050b8:	27a40010 	addiu	a0,sp,16
  4050bc:	14400141 	bnez	v0,4055c4 <__kernel_standard+0x23c4>
  4050c0:	00000000 	nop
  4050c4:	0c102738 	jal	409ce0 <__errno_location>
  4050c8:	00000000 	nop
  4050cc:	d7b60028 	ldc1	$f22,40(sp)
  4050d0:	24030022 	li	v1,34
  4050d4:	08100c94 	j	403250 <__kernel_standard+0x50>
  4050d8:	ac430000 	sw	v1,0(v0)
  4050dc:	0c1016e4 	jal	405b90 <__matherr>
  4050e0:	27a40010 	addiu	a0,sp,16
  4050e4:	1440015b 	bnez	v0,405654 <__kernel_standard+0x2454>
  4050e8:	8e02a9e0 	lw	v0,-22048(s0)
  4050ec:	104001af 	beqz	v0,4057ac <__kernel_standard+0x25ac>
  4050f0:	3c020049 	lui	v0,0x49
  4050f4:	0c102738 	jal	409ce0 <__errno_location>
  4050f8:	00000000 	nop
  4050fc:	d7b60028 	ldc1	$f22,40(sp)
  405100:	24030021 	li	v1,33
  405104:	08100c94 	j	403250 <__kernel_standard+0x50>
  405108:	ac430000 	sw	v1,0(v0)
  40510c:	0c1016e4 	jal	405b90 <__matherr>
  405110:	27a40010 	addiu	a0,sp,16
  405114:	1440010d 	bnez	v0,40554c <__kernel_standard+0x234c>
  405118:	3c020049 	lui	v0,0x49
  40511c:	8c43a9e0 	lw	v1,-22048(v0)
  405120:	1060025c 	beqz	v1,405a94 <__kernel_standard+0x2894>
  405124:	3c020049 	lui	v0,0x49
  405128:	0c102738 	jal	409ce0 <__errno_location>
  40512c:	00000000 	nop
  405130:	d7b60028 	ldc1	$f22,40(sp)
  405134:	24030021 	li	v1,33
  405138:	08100c94 	j	403250 <__kernel_standard+0x50>
  40513c:	ac430000 	sw	v1,0(v0)
  405140:	0c1016e4 	jal	405b90 <__matherr>
  405144:	27a40010 	addiu	a0,sp,16
  405148:	1440014b 	bnez	v0,405678 <__kernel_standard+0x2478>
  40514c:	3c020049 	lui	v0,0x49
  405150:	8c43a9e0 	lw	v1,-22048(v0)
  405154:	106001ad 	beqz	v1,40580c <__kernel_standard+0x260c>
  405158:	3c020049 	lui	v0,0x49
  40515c:	0c102738 	jal	409ce0 <__errno_location>
  405160:	00000000 	nop
  405164:	d7b60028 	ldc1	$f22,40(sp)
  405168:	24030021 	li	v1,33
  40516c:	08100c94 	j	403250 <__kernel_standard+0x50>
  405170:	ac430000 	sw	v1,0(v0)
  405174:	0c1016e4 	jal	405b90 <__matherr>
  405178:	27a40010 	addiu	a0,sp,16
  40517c:	14400105 	bnez	v0,405594 <__kernel_standard+0x2394>
  405180:	00000000 	nop
  405184:	0c102738 	jal	409ce0 <__errno_location>
  405188:	00000000 	nop
  40518c:	d7b60028 	ldc1	$f22,40(sp)
  405190:	24030022 	li	v1,34
  405194:	08100c94 	j	403250 <__kernel_standard+0x50>
  405198:	ac430000 	sw	v1,0(v0)
  40519c:	0c1016e4 	jal	405b90 <__matherr>
  4051a0:	27a40010 	addiu	a0,sp,16
  4051a4:	1440013a 	bnez	v0,405690 <__kernel_standard+0x2490>
  4051a8:	00000000 	nop
  4051ac:	0c102738 	jal	409ce0 <__errno_location>
  4051b0:	00000000 	nop
  4051b4:	d7b60028 	ldc1	$f22,40(sp)
  4051b8:	24030022 	li	v1,34
  4051bc:	08100c94 	j	403250 <__kernel_standard+0x50>
  4051c0:	ac430000 	sw	v1,0(v0)
  4051c4:	0c1016e4 	jal	405b90 <__matherr>
  4051c8:	27a40010 	addiu	a0,sp,16
  4051cc:	144000d6 	bnez	v0,405528 <__kernel_standard+0x2328>
  4051d0:	8e02a9e0 	lw	v0,-22048(s0)
  4051d4:	10400224 	beqz	v0,405a68 <__kernel_standard+0x2868>
  4051d8:	3c100049 	lui	s0,0x49
  4051dc:	0c102738 	jal	409ce0 <__errno_location>
  4051e0:	00000000 	nop
  4051e4:	d7b60028 	ldc1	$f22,40(sp)
  4051e8:	24030022 	li	v1,34
  4051ec:	08100c94 	j	403250 <__kernel_standard+0x50>
  4051f0:	ac430000 	sw	v1,0(v0)
  4051f4:	0c1016e4 	jal	405b90 <__matherr>
  4051f8:	27a40010 	addiu	a0,sp,16
  4051fc:	144000ee 	bnez	v0,4055b8 <__kernel_standard+0x23b8>
  405200:	00000000 	nop
  405204:	0c102738 	jal	409ce0 <__errno_location>
  405208:	00000000 	nop
  40520c:	d7b60028 	ldc1	$f22,40(sp)
  405210:	24030022 	li	v1,34
  405214:	08100c94 	j	403250 <__kernel_standard+0x50>
  405218:	ac430000 	sw	v1,0(v0)
  40521c:	3c020046 	lui	v0,0x46
  405220:	d4567aa0 	ldc1	$f22,31392(v0)
  405224:	08101246 	j	404918 <__kernel_standard+0x1718>
  405228:	3c020049 	lui	v0,0x49
  40522c:	3c020046 	lui	v0,0x46
  405230:	d4567ab0 	ldc1	$f22,31408(v0)
  405234:	08100efc 	j	403bf0 <__kernel_standard+0x9f0>
  405238:	3c020049 	lui	v0,0x49
  40523c:	3c020046 	lui	v0,0x46
  405240:	d4567ab0 	ldc1	$f22,31408(v0)
  405244:	08101227 	j	40489c <__kernel_standard+0x169c>
  405248:	3c020049 	lui	v0,0x49
  40524c:	3c020046 	lui	v0,0x46
  405250:	d4407ab0 	ldc1	$f0,31408(v0)
  405254:	08100e85 	j	403a14 <__kernel_standard+0x814>
  405258:	3c020049 	lui	v0,0x49
  40525c:	3c021000 	lui	v0,0x1000
  405260:	d4400008 	ldc1	$f0,8(v0)
  405264:	081011c9 	j	404724 <__kernel_standard+0x1524>
  405268:	46200583 	div.d	$f22,$f0,$f0
  40526c:	3c020046 	lui	v0,0x46
  405270:	d4567aa0 	ldc1	$f22,31392(v0)
  405274:	08100e2c 	j	4038b0 <__kernel_standard+0x6b0>
  405278:	3c020049 	lui	v0,0x49
  40527c:	3c020046 	lui	v0,0x46
  405280:	d4567ab0 	ldc1	$f22,31408(v0)
  405284:	0810116a 	j	4045a8 <__kernel_standard+0x13a8>
  405288:	3c020049 	lui	v0,0x49
  40528c:	3c021000 	lui	v0,0x1000
  405290:	d4400008 	ldc1	$f0,8(v0)
  405294:	4622003c 	c.lt.d	$f0,$f2
  405298:	00000000 	nop
  40529c:	4502010e 	bc1fl	4056d8 <__kernel_standard+0x24d8>
  4052a0:	3c020046 	lui	v0,0x46
  4052a4:	3c020046 	lui	v0,0x46
  4052a8:	d4407aa0 	ldc1	$f0,31392(v0)
  4052ac:	081010cf 	j	40433c <__kernel_standard+0x113c>
  4052b0:	3c020049 	lui	v0,0x49
  4052b4:	3c027fbf 	lui	v0,0x7fbf
  4052b8:	3442ffff 	ori	v0,v0,0xffff
  4052bc:	44820000 	mtc1	v0,$f0
  4052c0:	0810114a 	j	404528 <__kernel_standard+0x1328>
  4052c4:	460005a1 	cvt.d.s	$f22,$f0
  4052c8:	3c027fbf 	lui	v0,0x7fbf
  4052cc:	3442ffff 	ori	v0,v0,0xffff
  4052d0:	44820000 	mtc1	v0,$f0
  4052d4:	08100caf 	j	4032bc <__kernel_standard+0xbc>
  4052d8:	460005a1 	cvt.d.s	$f22,$f0
  4052dc:	3c020046 	lui	v0,0x46
  4052e0:	d4567ab0 	ldc1	$f22,31408(v0)
  4052e4:	08100ccf 	j	40333c <__kernel_standard+0x13c>
  4052e8:	3c020049 	lui	v0,0x49
  4052ec:	3c021000 	lui	v0,0x1000
  4052f0:	d4400008 	ldc1	$f0,8(v0)
  4052f4:	081010ed 	j	4043b4 <__kernel_standard+0x11b4>
  4052f8:	46200583 	div.d	$f22,$f0,$f0
  4052fc:	3c020046 	lui	v0,0x46
  405300:	d4567aa0 	ldc1	$f22,31392(v0)
  405304:	08100d61 	j	403584 <__kernel_standard+0x384>
  405308:	3c020049 	lui	v0,0x49
  40530c:	3c020046 	lui	v0,0x46
  405310:	d4567ab0 	ldc1	$f22,31408(v0)
  405314:	08100f74 	j	403dd0 <__kernel_standard+0xbd0>
  405318:	3c020049 	lui	v0,0x49
  40531c:	3c020046 	lui	v0,0x46
  405320:	d4567aa0 	ldc1	$f22,31392(v0)
  405324:	081010aa 	j	4042a8 <__kernel_standard+0x10a8>
  405328:	3c020049 	lui	v0,0x49
  40532c:	3c020046 	lui	v0,0x46
  405330:	d4567ab0 	ldc1	$f22,31408(v0)
  405334:	08101265 	j	404994 <__kernel_standard+0x1794>
  405338:	3c020049 	lui	v0,0x49
  40533c:	3c027fbf 	lui	v0,0x7fbf
  405340:	3442ffff 	ori	v0,v0,0xffff
  405344:	44820000 	mtc1	v0,$f0
  405348:	08100f92 	j	403e48 <__kernel_standard+0xc48>
  40534c:	460005a1 	cvt.d.s	$f22,$f0
  405350:	3c027fbf 	lui	v0,0x7fbf
  405354:	3442ffff 	ori	v0,v0,0xffff
  405358:	44820000 	mtc1	v0,$f0
  40535c:	08101188 	j	404620 <__kernel_standard+0x1420>
  405360:	460005a1 	cvt.d.s	$f22,$f0
  405364:	3c020046 	lui	v0,0x46
  405368:	d4567ab0 	ldc1	$f22,31408(v0)
  40536c:	0810110d 	j	404434 <__kernel_standard+0x1234>
  405370:	3c020049 	lui	v0,0x49
  405374:	3c021000 	lui	v0,0x1000
  405378:	d4400008 	ldc1	$f0,8(v0)
  40537c:	3c030046 	lui	v1,0x46
  405380:	3c020046 	lui	v0,0x46
  405384:	d4767aa0 	ldc1	$f22,31392(v1)
  405388:	4620103c 	c.lt.d	$f2,$f0
  40538c:	d4407198 	ldc1	$f0,29080(v0)
  405390:	f7b60028 	sdc1	$f22,40(sp)
  405394:	4500fb8b 	bc1f	4041c4 <__kernel_standard+0xfc4>
  405398:	4620a502 	mul.d	$f20,$f20,$f0
  40539c:	0c101b64 	jal	406d90 <__rint>
  4053a0:	4620a306 	mov.d	$f12,$f20
  4053a4:	46340032 	c.eq.d	$f0,$f20
  4053a8:	00000000 	nop
  4053ac:	4503fb86 	bc1tl	4041c8 <__kernel_standard+0xfc8>
  4053b0:	3c020049 	lui	v0,0x49
  4053b4:	3c020046 	lui	v0,0x46
  4053b8:	d4567ab0 	ldc1	$f22,31408(v0)
  4053bc:	f7b60028 	sdc1	$f22,40(sp)
  4053c0:	08101072 	j	4041c8 <__kernel_standard+0xfc8>
  4053c4:	3c020049 	lui	v0,0x49
  4053c8:	3c020046 	lui	v0,0x46
  4053cc:	d4567aa0 	ldc1	$f22,31392(v0)
  4053d0:	08100d0a 	j	403428 <__kernel_standard+0x228>
  4053d4:	3c020049 	lui	v0,0x49
  4053d8:	3c020046 	lui	v0,0x46
  4053dc:	d4567ab0 	ldc1	$f22,31408(v0)
  4053e0:	0810112c 	j	4044b0 <__kernel_standard+0x12b0>
  4053e4:	3c020049 	lui	v0,0x49
  4053e8:	3c020046 	lui	v0,0x46
  4053ec:	d4567aa0 	ldc1	$f22,31392(v0)
  4053f0:	08100edd 	j	403b74 <__kernel_standard+0x974>
  4053f4:	3c020049 	lui	v0,0x49
  4053f8:	3c020046 	lui	v0,0x46
  4053fc:	d4567ab0 	ldc1	$f22,31408(v0)
  405400:	0810104b 	j	40412c <__kernel_standard+0xf2c>
  405404:	3c020049 	lui	v0,0x49
  405408:	3c027fbf 	lui	v0,0x7fbf
  40540c:	3442ffff 	ori	v0,v0,0xffff
  405410:	44820000 	mtc1	v0,$f0
  405414:	08100ff1 	j	403fc4 <__kernel_standard+0xdc4>
  405418:	460005a1 	cvt.d.s	$f22,$f0
  40541c:	3c020046 	lui	v0,0x46
  405420:	d4567ab0 	ldc1	$f22,31408(v0)
  405424:	08100fb2 	j	403ec8 <__kernel_standard+0xcc8>
  405428:	3c020049 	lui	v0,0x49
  40542c:	3c020046 	lui	v0,0x46
  405430:	d4567aa0 	ldc1	$f22,31392(v0)
  405434:	081011e9 	j	4047a4 <__kernel_standard+0x15a4>
  405438:	3c020049 	lui	v0,0x49
  40543c:	3c020046 	lui	v0,0x46
  405440:	d4567aa0 	ldc1	$f22,31392(v0)
  405444:	08101208 	j	404820 <__kernel_standard+0x1620>
  405448:	3c020049 	lui	v0,0x49
  40544c:	d7b60028 	ldc1	$f22,40(sp)
  405450:	08100c95 	j	403254 <__kernel_standard+0x54>
  405454:	4620b006 	mov.d	$f0,$f22
  405458:	f7b60028 	sdc1	$f22,40(sp)
  40545c:	0c1016e4 	jal	405b90 <__matherr>
  405460:	27a40010 	addiu	a0,sp,16
  405464:	104000b5 	beqz	v0,40573c <__kernel_standard+0x253c>
  405468:	3c020049 	lui	v0,0x49
  40546c:	d7b60028 	ldc1	$f22,40(sp)
  405470:	08100c95 	j	403254 <__kernel_standard+0x54>
  405474:	4620b006 	mov.d	$f0,$f22
  405478:	f7a20028 	sdc1	$f2,40(sp)
  40547c:	0c1016e4 	jal	405b90 <__matherr>
  405480:	27a40010 	addiu	a0,sp,16
  405484:	14400097 	bnez	v0,4056e4 <__kernel_standard+0x24e4>
  405488:	00000000 	nop
  40548c:	0c102738 	jal	409ce0 <__errno_location>
  405490:	00000000 	nop
  405494:	d7b60028 	ldc1	$f22,40(sp)
  405498:	24030021 	li	v1,33
  40549c:	08100c94 	j	403250 <__kernel_standard+0x50>
  4054a0:	ac430000 	sw	v1,0(v0)
  4054a4:	d7b60028 	ldc1	$f22,40(sp)
  4054a8:	08100c95 	j	403254 <__kernel_standard+0x54>
  4054ac:	4620b006 	mov.d	$f0,$f22
  4054b0:	d7b60028 	ldc1	$f22,40(sp)
  4054b4:	08100c95 	j	403254 <__kernel_standard+0x54>
  4054b8:	4620b006 	mov.d	$f0,$f22
  4054bc:	d7b60028 	ldc1	$f22,40(sp)
  4054c0:	08100c95 	j	403254 <__kernel_standard+0x54>
  4054c4:	4620b006 	mov.d	$f0,$f22
  4054c8:	d7b60028 	ldc1	$f22,40(sp)
  4054cc:	08100c95 	j	403254 <__kernel_standard+0x54>
  4054d0:	4620b006 	mov.d	$f0,$f22
  4054d4:	d7b60028 	ldc1	$f22,40(sp)
  4054d8:	08100c95 	j	403254 <__kernel_standard+0x54>
  4054dc:	4620b006 	mov.d	$f0,$f22
  4054e0:	d7b60028 	ldc1	$f22,40(sp)
  4054e4:	08100c95 	j	403254 <__kernel_standard+0x54>
  4054e8:	4620b006 	mov.d	$f0,$f22
  4054ec:	d7b60028 	ldc1	$f22,40(sp)
  4054f0:	08100c95 	j	403254 <__kernel_standard+0x54>
  4054f4:	4620b006 	mov.d	$f0,$f22
  4054f8:	d7b60028 	ldc1	$f22,40(sp)
  4054fc:	08100c95 	j	403254 <__kernel_standard+0x54>
  405500:	4620b006 	mov.d	$f0,$f22
  405504:	d7b60028 	ldc1	$f22,40(sp)
  405508:	08100c95 	j	403254 <__kernel_standard+0x54>
  40550c:	4620b006 	mov.d	$f0,$f22
  405510:	d7b60028 	ldc1	$f22,40(sp)
  405514:	08100c95 	j	403254 <__kernel_standard+0x54>
  405518:	4620b006 	mov.d	$f0,$f22
  40551c:	d7b60028 	ldc1	$f22,40(sp)
  405520:	08100c95 	j	403254 <__kernel_standard+0x54>
  405524:	4620b006 	mov.d	$f0,$f22
  405528:	d7b60028 	ldc1	$f22,40(sp)
  40552c:	08100c95 	j	403254 <__kernel_standard+0x54>
  405530:	4620b006 	mov.d	$f0,$f22
  405534:	d7b60028 	ldc1	$f22,40(sp)
  405538:	08100c95 	j	403254 <__kernel_standard+0x54>
  40553c:	4620b006 	mov.d	$f0,$f22
  405540:	d7b60028 	ldc1	$f22,40(sp)
  405544:	08100c95 	j	403254 <__kernel_standard+0x54>
  405548:	4620b006 	mov.d	$f0,$f22
  40554c:	d7b60028 	ldc1	$f22,40(sp)
  405550:	08100c95 	j	403254 <__kernel_standard+0x54>
  405554:	4620b006 	mov.d	$f0,$f22
  405558:	d7b60028 	ldc1	$f22,40(sp)
  40555c:	08100c95 	j	403254 <__kernel_standard+0x54>
  405560:	4620b006 	mov.d	$f0,$f22
  405564:	d7b60028 	ldc1	$f22,40(sp)
  405568:	08100c95 	j	403254 <__kernel_standard+0x54>
  40556c:	4620b006 	mov.d	$f0,$f22
  405570:	d7b60028 	ldc1	$f22,40(sp)
  405574:	08100c95 	j	403254 <__kernel_standard+0x54>
  405578:	4620b006 	mov.d	$f0,$f22
  40557c:	d7b60028 	ldc1	$f22,40(sp)
  405580:	08100c95 	j	403254 <__kernel_standard+0x54>
  405584:	4620b006 	mov.d	$f0,$f22
  405588:	d7b60028 	ldc1	$f22,40(sp)
  40558c:	08100c95 	j	403254 <__kernel_standard+0x54>
  405590:	4620b006 	mov.d	$f0,$f22
  405594:	d7b60028 	ldc1	$f22,40(sp)
  405598:	08100c95 	j	403254 <__kernel_standard+0x54>
  40559c:	4620b006 	mov.d	$f0,$f22
  4055a0:	d7b60028 	ldc1	$f22,40(sp)
  4055a4:	08100c95 	j	403254 <__kernel_standard+0x54>
  4055a8:	4620b006 	mov.d	$f0,$f22
  4055ac:	d7b60028 	ldc1	$f22,40(sp)
  4055b0:	08100c95 	j	403254 <__kernel_standard+0x54>
  4055b4:	4620b006 	mov.d	$f0,$f22
  4055b8:	d7b60028 	ldc1	$f22,40(sp)
  4055bc:	08100c95 	j	403254 <__kernel_standard+0x54>
  4055c0:	4620b006 	mov.d	$f0,$f22
  4055c4:	d7b60028 	ldc1	$f22,40(sp)
  4055c8:	08100c95 	j	403254 <__kernel_standard+0x54>
  4055cc:	4620b006 	mov.d	$f0,$f22
  4055d0:	d7b60028 	ldc1	$f22,40(sp)
  4055d4:	08100c95 	j	403254 <__kernel_standard+0x54>
  4055d8:	4620b006 	mov.d	$f0,$f22
  4055dc:	d7b60028 	ldc1	$f22,40(sp)
  4055e0:	08100c95 	j	403254 <__kernel_standard+0x54>
  4055e4:	4620b006 	mov.d	$f0,$f22
  4055e8:	d7b60028 	ldc1	$f22,40(sp)
  4055ec:	08100c95 	j	403254 <__kernel_standard+0x54>
  4055f0:	4620b006 	mov.d	$f0,$f22
  4055f4:	d7b60028 	ldc1	$f22,40(sp)
  4055f8:	08100c95 	j	403254 <__kernel_standard+0x54>
  4055fc:	4620b006 	mov.d	$f0,$f22
  405600:	d7b60028 	ldc1	$f22,40(sp)
  405604:	08100c95 	j	403254 <__kernel_standard+0x54>
  405608:	4620b006 	mov.d	$f0,$f22
  40560c:	d7b60028 	ldc1	$f22,40(sp)
  405610:	08100c95 	j	403254 <__kernel_standard+0x54>
  405614:	4620b006 	mov.d	$f0,$f22
  405618:	d7b60028 	ldc1	$f22,40(sp)
  40561c:	08100c95 	j	403254 <__kernel_standard+0x54>
  405620:	4620b006 	mov.d	$f0,$f22
  405624:	d7b60028 	ldc1	$f22,40(sp)
  405628:	08100c95 	j	403254 <__kernel_standard+0x54>
  40562c:	4620b006 	mov.d	$f0,$f22
  405630:	d7b60028 	ldc1	$f22,40(sp)
  405634:	08100c95 	j	403254 <__kernel_standard+0x54>
  405638:	4620b006 	mov.d	$f0,$f22
  40563c:	d7b60028 	ldc1	$f22,40(sp)
  405640:	08100c95 	j	403254 <__kernel_standard+0x54>
  405644:	4620b006 	mov.d	$f0,$f22
  405648:	d7b60028 	ldc1	$f22,40(sp)
  40564c:	08100c95 	j	403254 <__kernel_standard+0x54>
  405650:	4620b006 	mov.d	$f0,$f22
  405654:	d7b60028 	ldc1	$f22,40(sp)
  405658:	08100c95 	j	403254 <__kernel_standard+0x54>
  40565c:	4620b006 	mov.d	$f0,$f22
  405660:	d7b60028 	ldc1	$f22,40(sp)
  405664:	08100c95 	j	403254 <__kernel_standard+0x54>
  405668:	4620b006 	mov.d	$f0,$f22
  40566c:	d7b60028 	ldc1	$f22,40(sp)
  405670:	08100c95 	j	403254 <__kernel_standard+0x54>
  405674:	4620b006 	mov.d	$f0,$f22
  405678:	d7b60028 	ldc1	$f22,40(sp)
  40567c:	08100c95 	j	403254 <__kernel_standard+0x54>
  405680:	4620b006 	mov.d	$f0,$f22
  405684:	d7b60028 	ldc1	$f22,40(sp)
  405688:	08100c95 	j	403254 <__kernel_standard+0x54>
  40568c:	4620b006 	mov.d	$f0,$f22
  405690:	d7b60028 	ldc1	$f22,40(sp)
  405694:	08100c95 	j	403254 <__kernel_standard+0x54>
  405698:	4620b006 	mov.d	$f0,$f22
  40569c:	d7b60028 	ldc1	$f22,40(sp)
  4056a0:	08100c95 	j	403254 <__kernel_standard+0x54>
  4056a4:	4620b006 	mov.d	$f0,$f22
  4056a8:	d7b60028 	ldc1	$f22,40(sp)
  4056ac:	08100c95 	j	403254 <__kernel_standard+0x54>
  4056b0:	4620b006 	mov.d	$f0,$f22
  4056b4:	d7b60028 	ldc1	$f22,40(sp)
  4056b8:	08100c95 	j	403254 <__kernel_standard+0x54>
  4056bc:	4620b006 	mov.d	$f0,$f22
  4056c0:	d7b60028 	ldc1	$f22,40(sp)
  4056c4:	08100c95 	j	403254 <__kernel_standard+0x54>
  4056c8:	4620b006 	mov.d	$f0,$f22
  4056cc:	d4407aa8 	ldc1	$f0,31400(v0)
  4056d0:	081010cf 	j	40433c <__kernel_standard+0x113c>
  4056d4:	3c020049 	lui	v0,0x49
  4056d8:	d4407ab0 	ldc1	$f0,31408(v0)
  4056dc:	081010cf 	j	40433c <__kernel_standard+0x113c>
  4056e0:	3c020049 	lui	v0,0x49
  4056e4:	d7b60028 	ldc1	$f22,40(sp)
  4056e8:	08100c95 	j	403254 <__kernel_standard+0x54>
  4056ec:	4620b006 	mov.d	$f0,$f22
  4056f0:	0c101b64 	jal	406d90 <__rint>
  4056f4:	4620a306 	mov.d	$f12,$f20
  4056f8:	46340032 	c.eq.d	$f0,$f20
  4056fc:	00000000 	nop
  405700:	4503fab1 	bc1tl	4041c8 <__kernel_standard+0xfc8>
  405704:	3c020049 	lui	v0,0x49
  405708:	3c020046 	lui	v0,0x46
  40570c:	d4567aa8 	ldc1	$f22,31400(v0)
  405710:	f7b60028 	sdc1	$f22,40(sp)
  405714:	08101072 	j	4041c8 <__kernel_standard+0xfc8>
  405718:	3c020049 	lui	v0,0x49
  40571c:	8c47b190 	lw	a3,-20080(v0)
  405720:	3c040046 	lui	a0,0x46
  405724:	24847870 	addiu	a0,a0,30832
  405728:	24050001 	li	a1,1
  40572c:	0c105738 	jal	415ce0 <_IO_fwrite>
  405730:	24060014 	li	a2,20
  405734:	08100fd7 	j	403f5c <__kernel_standard+0xd5c>
  405738:	00000000 	nop
  40573c:	8c47b190 	lw	a3,-20080(v0)
  405740:	3c040046 	lui	a0,0x46
  405744:	24847888 	addiu	a0,a0,30856
  405748:	24050001 	li	a1,1
  40574c:	0c105738 	jal	415ce0 <_IO_fwrite>
  405750:	24060017 	li	a2,23
  405754:	0c102738 	jal	409ce0 <__errno_location>
  405758:	00000000 	nop
  40575c:	d7b60028 	ldc1	$f22,40(sp)
  405760:	24030021 	li	v1,33
  405764:	08100c94 	j	403250 <__kernel_standard+0x50>
  405768:	ac430000 	sw	v1,0(v0)
  40576c:	8c47b190 	lw	a3,-20080(v0)
  405770:	3c040046 	lui	a0,0x46
  405774:	248478a0 	addiu	a0,a0,30880
  405778:	24050001 	li	a1,1
  40577c:	0c105738 	jal	415ce0 <_IO_fwrite>
  405780:	24060011 	li	a2,17
  405784:	081013b4 	j	404ed0 <__kernel_standard+0x1cd0>
  405788:	00000000 	nop
  40578c:	8c47b190 	lw	a3,-20080(v0)
  405790:	3c040046 	lui	a0,0x46
  405794:	248478b4 	addiu	a0,a0,30900
  405798:	24050001 	li	a1,1
  40579c:	0c105738 	jal	415ce0 <_IO_fwrite>
  4057a0:	24060011 	li	a2,17
  4057a4:	0810134e 	j	404d38 <__kernel_standard+0x1b38>
  4057a8:	00000000 	nop
  4057ac:	8c47b190 	lw	a3,-20080(v0)
  4057b0:	3c040046 	lui	a0,0x46
  4057b4:	248478c8 	addiu	a0,a0,30920
  4057b8:	24050001 	li	a1,1
  4057bc:	0c105738 	jal	415ce0 <_IO_fwrite>
  4057c0:	24060014 	li	a2,20
  4057c4:	0810143d 	j	4050f4 <__kernel_standard+0x1ef4>
  4057c8:	00000000 	nop
  4057cc:	8c47b190 	lw	a3,-20080(v0)
  4057d0:	3c040046 	lui	a0,0x46
  4057d4:	248478e0 	addiu	a0,a0,30944
  4057d8:	24050001 	li	a1,1
  4057dc:	0c105738 	jal	415ce0 <_IO_fwrite>
  4057e0:	24060012 	li	a2,18
  4057e4:	08101307 	j	404c1c <__kernel_standard+0x1a1c>
  4057e8:	00000000 	nop
  4057ec:	8c47b190 	lw	a3,-20080(v0)
  4057f0:	3c040046 	lui	a0,0x46
  4057f4:	248478f4 	addiu	a0,a0,30964
  4057f8:	24050001 	li	a1,1
  4057fc:	0c105738 	jal	415ce0 <_IO_fwrite>
  405800:	24060010 	li	a2,16
  405804:	081013d7 	j	404f5c <__kernel_standard+0x1d5c>
  405808:	00000000 	nop
  40580c:	8c47b190 	lw	a3,-20080(v0)
  405810:	3c040046 	lui	a0,0x46
  405814:	248478b4 	addiu	a0,a0,30900
  405818:	24050001 	li	a1,1
  40581c:	0c105738 	jal	415ce0 <_IO_fwrite>
  405820:	24060011 	li	a2,17
  405824:	08101457 	j	40515c <__kernel_standard+0x1f5c>
  405828:	00000000 	nop
  40582c:	8fa40014 	lw	a0,20(sp)
  405830:	0c1056e0 	jal	415b80 <_IO_fputs>
  405834:	8e05b190 	lw	a1,-20080(s0)
  405838:	8e07b190 	lw	a3,-20080(s0)
  40583c:	3c040046 	lui	a0,0x46
  405840:	24847908 	addiu	a0,a0,30984
  405844:	24050001 	li	a1,1
  405848:	0c105738 	jal	415ce0 <_IO_fwrite>
  40584c:	2406000e 	li	a2,14
  405850:	081013e3 	j	404f8c <__kernel_standard+0x1d8c>
  405854:	00000000 	nop
  405858:	8fa40014 	lw	a0,20(sp)
  40585c:	0c1056e0 	jal	415b80 <_IO_fputs>
  405860:	8e05b190 	lw	a1,-20080(s0)
  405864:	8e07b190 	lw	a3,-20080(s0)
  405868:	3c040046 	lui	a0,0x46
  40586c:	24847908 	addiu	a0,a0,30984
  405870:	24050001 	li	a1,1
  405874:	0c105738 	jal	415ce0 <_IO_fwrite>
  405878:	2406000e 	li	a2,14
  40587c:	08101327 	j	404c9c <__kernel_standard+0x1a9c>
  405880:	00000000 	nop
  405884:	8c47b190 	lw	a3,-20080(v0)
  405888:	3c040046 	lui	a0,0x46
  40588c:	24847918 	addiu	a0,a0,31000
  405890:	24050001 	li	a1,1
  405894:	0c105738 	jal	415ce0 <_IO_fwrite>
  405898:	24060012 	li	a2,18
  40589c:	081012cf 	j	404b3c <__kernel_standard+0x193c>
  4058a0:	00000000 	nop
  4058a4:	8c47b190 	lw	a3,-20080(v0)
  4058a8:	3c040046 	lui	a0,0x46
  4058ac:	2484792c 	addiu	a0,a0,31020
  4058b0:	24050001 	li	a1,1
  4058b4:	0c105738 	jal	415ce0 <_IO_fwrite>
  4058b8:	24060011 	li	a2,17
  4058bc:	08101427 	j	40509c <__kernel_standard+0x1e9c>
  4058c0:	00000000 	nop
  4058c4:	8fa40014 	lw	a0,20(sp)
  4058c8:	0c1056e0 	jal	415b80 <_IO_fputs>
  4058cc:	8e05b190 	lw	a1,-20080(s0)
  4058d0:	8e07b190 	lw	a3,-20080(s0)
  4058d4:	3c040046 	lui	a0,0x46
  4058d8:	24847908 	addiu	a0,a0,30984
  4058dc:	24050001 	li	a1,1
  4058e0:	0c105738 	jal	415ce0 <_IO_fwrite>
  4058e4:	2406000e 	li	a2,14
  4058e8:	0810135a 	j	404d68 <__kernel_standard+0x1b68>
  4058ec:	00000000 	nop
  4058f0:	8fa40014 	lw	a0,20(sp)
  4058f4:	0c1056e0 	jal	415b80 <_IO_fputs>
  4058f8:	8e05b190 	lw	a1,-20080(s0)
  4058fc:	8e07b190 	lw	a3,-20080(s0)
  405900:	3c040046 	lui	a0,0x46
  405904:	24847908 	addiu	a0,a0,30984
  405908:	24050001 	li	a1,1
  40590c:	0c105738 	jal	415ce0 <_IO_fwrite>
  405910:	2406000e 	li	a2,14
  405914:	081013ca 	j	404f28 <__kernel_standard+0x1d28>
  405918:	00000000 	nop
  40591c:	8fa40014 	lw	a0,20(sp)
  405920:	0c1056e0 	jal	415b80 <_IO_fputs>
  405924:	8e05b190 	lw	a1,-20080(s0)
  405928:	8e07b190 	lw	a3,-20080(s0)
  40592c:	3c040046 	lui	a0,0x46
  405930:	24847908 	addiu	a0,a0,30984
  405934:	24050001 	li	a1,1
  405938:	0c105738 	jal	415ce0 <_IO_fwrite>
  40593c:	2406000e 	li	a2,14
  405940:	0810137a 	j	404de8 <__kernel_standard+0x1be8>
  405944:	00000000 	nop
  405948:	8c47b190 	lw	a3,-20080(v0)
  40594c:	3c040046 	lui	a0,0x46
  405950:	24847940 	addiu	a0,a0,31040
  405954:	24050001 	li	a1,1
  405958:	0c105738 	jal	415ce0 <_IO_fwrite>
  40595c:	24060013 	li	a2,19
  405960:	081012f0 	j	404bc0 <__kernel_standard+0x19c0>
  405964:	00000000 	nop
  405968:	8c47b190 	lw	a3,-20080(v0)
  40596c:	3c040046 	lui	a0,0x46
  405970:	24847954 	addiu	a0,a0,31060
  405974:	24050001 	li	a1,1
  405978:	0c105738 	jal	415ce0 <_IO_fwrite>
  40597c:	24060020 	li	a2,32
  405980:	08101334 	j	404cd0 <__kernel_standard+0x1ad0>
  405984:	00000000 	nop
  405988:	8c47b190 	lw	a3,-20080(v0)
  40598c:	3c040046 	lui	a0,0x46
  405990:	24847978 	addiu	a0,a0,31096
  405994:	24050001 	li	a1,1
  405998:	0c105738 	jal	415ce0 <_IO_fwrite>
  40599c:	24060018 	li	a2,24
  4059a0:	08101275 	j	4049d4 <__kernel_standard+0x17d4>
  4059a4:	00000000 	nop
  4059a8:	8c47b190 	lw	a3,-20080(v0)
  4059ac:	3c040046 	lui	a0,0x46
  4059b0:	24847994 	addiu	a0,a0,31124
  4059b4:	24050001 	li	a1,1
  4059b8:	0c105738 	jal	415ce0 <_IO_fwrite>
  4059bc:	24060013 	li	a2,19
  4059c0:	0810139d 	j	404e74 <__kernel_standard+0x1c74>
  4059c4:	00000000 	nop
  4059c8:	8c47b190 	lw	a3,-20080(v0)
  4059cc:	3c040046 	lui	a0,0x46
  4059d0:	248479a8 	addiu	a0,a0,31144
  4059d4:	24050001 	li	a1,1
  4059d8:	0c105738 	jal	415ce0 <_IO_fwrite>
  4059dc:	24060014 	li	a2,20
  4059e0:	081012b6 	j	404ad8 <__kernel_standard+0x18d8>
  4059e4:	00000000 	nop
  4059e8:	8c47b190 	lw	a3,-20080(v0)
  4059ec:	3c040046 	lui	a0,0x46
  4059f0:	248478a0 	addiu	a0,a0,30880
  4059f4:	24050001 	li	a1,1
  4059f8:	0c105738 	jal	415ce0 <_IO_fwrite>
  4059fc:	24060011 	li	a2,17
  405a00:	08101282 	j	404a08 <__kernel_standard+0x1808>
  405a04:	00000000 	nop
  405a08:	8c47b190 	lw	a3,-20080(v0)
  405a0c:	3c040046 	lui	a0,0x46
  405a10:	2484792c 	addiu	a0,a0,31020
  405a14:	24050001 	li	a1,1
  405a18:	0c105738 	jal	415ce0 <_IO_fwrite>
  405a1c:	24060011 	li	a2,17
  405a20:	081012a9 	j	404aa4 <__kernel_standard+0x18a4>
  405a24:	00000000 	nop
  405a28:	8c47b190 	lw	a3,-20080(v0)
  405a2c:	3c040046 	lui	a0,0x46
  405a30:	248479c0 	addiu	a0,a0,31168
  405a34:	24050001 	li	a1,1
  405a38:	0c105738 	jal	415ce0 <_IO_fwrite>
  405a3c:	24060014 	li	a2,20
  405a40:	0810128f 	j	404a3c <__kernel_standard+0x183c>
  405a44:	00000000 	nop
  405a48:	8c47b190 	lw	a3,-20080(v0)
  405a4c:	3c040046 	lui	a0,0x46
  405a50:	248479d8 	addiu	a0,a0,31192
  405a54:	24050001 	li	a1,1
  405a58:	0c105738 	jal	415ce0 <_IO_fwrite>
  405a5c:	24060014 	li	a2,20
  405a60:	08101390 	j	404e40 <__kernel_standard+0x1c40>
  405a64:	00000000 	nop
  405a68:	8fa40014 	lw	a0,20(sp)
  405a6c:	0c1056e0 	jal	415b80 <_IO_fputs>
  405a70:	8e05b190 	lw	a1,-20080(s0)
  405a74:	8e07b190 	lw	a3,-20080(s0)
  405a78:	3c040046 	lui	a0,0x46
  405a7c:	24847908 	addiu	a0,a0,30984
  405a80:	24050001 	li	a1,1
  405a84:	0c105738 	jal	415ce0 <_IO_fwrite>
  405a88:	2406000e 	li	a2,14
  405a8c:	08101477 	j	4051dc <__kernel_standard+0x1fdc>
  405a90:	00000000 	nop
  405a94:	8c47b190 	lw	a3,-20080(v0)
  405a98:	3c040046 	lui	a0,0x46
  405a9c:	248479f0 	addiu	a0,a0,31216
  405aa0:	24050001 	li	a1,1
  405aa4:	0c105738 	jal	415ce0 <_IO_fwrite>
  405aa8:	24060019 	li	a2,25
  405aac:	0810144a 	j	405128 <__kernel_standard+0x1f28>
  405ab0:	00000000 	nop
  405ab4:	8c47b190 	lw	a3,-20080(v0)
  405ab8:	3c040046 	lui	a0,0x46
  405abc:	24847a0c 	addiu	a0,a0,31244
  405ac0:	24050001 	li	a1,1
  405ac4:	0c105738 	jal	415ce0 <_IO_fwrite>
  405ac8:	24060013 	li	a2,19
  405acc:	3c030046 	lui	v1,0x46
  405ad0:	d4767aa0 	ldc1	$f22,31392(v1)
  405ad4:	f7b60028 	sdc1	$f22,40(sp)
  405ad8:	0c102738 	jal	409ce0 <__errno_location>
  405adc:	00000000 	nop
  405ae0:	24030021 	li	v1,33
  405ae4:	08100c94 	j	403250 <__kernel_standard+0x50>
  405ae8:	ac430000 	sw	v1,0(v0)
  405aec:	8c47b190 	lw	a3,-20080(v0)
  405af0:	3c040046 	lui	a0,0x46
  405af4:	24847a20 	addiu	a0,a0,31264
  405af8:	24050001 	li	a1,1
  405afc:	0c105738 	jal	415ce0 <_IO_fwrite>
  405b00:	24060013 	li	a2,19
  405b04:	081013fa 	j	404fe8 <__kernel_standard+0x1de8>
  405b08:	00000000 	nop
  405b0c:	8c47b190 	lw	a3,-20080(v0)
  405b10:	3c040046 	lui	a0,0x46
  405b14:	248479f0 	addiu	a0,a0,31216
  405b18:	24050001 	li	a1,1
  405b1c:	0c105738 	jal	415ce0 <_IO_fwrite>
  405b20:	24060019 	li	a2,25
  405b24:	08101341 	j	404d04 <__kernel_standard+0x1b04>
  405b28:	00000000 	nop
  405b2c:	8c47b190 	lw	a3,-20080(v0)
  405b30:	3c040046 	lui	a0,0x46
  405b34:	24847a34 	addiu	a0,a0,31284
  405b38:	24050001 	li	a1,1
  405b3c:	0c105738 	jal	415ce0 <_IO_fwrite>
  405b40:	24060012 	li	a2,18
  405b44:	081012c3 	j	404b0c <__kernel_standard+0x190c>
  405b48:	00000000 	nop
  405b4c:	8c47b190 	lw	a3,-20080(v0)
  405b50:	3c040046 	lui	a0,0x46
  405b54:	24847a48 	addiu	a0,a0,31304
  405b58:	24050001 	li	a1,1
  405b5c:	0c105738 	jal	415ce0 <_IO_fwrite>
  405b60:	24060013 	li	a2,19
  405b64:	0810129c 	j	404a70 <__kernel_standard+0x1870>
  405b68:	00000000 	nop
  405b6c:	3c040046 	lui	a0,0x46
  405b70:	3c050046 	lui	a1,0x46
  405b74:	3c070046 	lui	a3,0x46
  405b78:	24847a5c 	addiu	a0,a0,31324
  405b7c:	24a57a74 	addiu	a1,a1,31348
  405b80:	24e77230 	addiu	a3,a3,29232
  405b84:	0c102748 	jal	409d20 <__assert_fail>
  405b88:	240600a6 	li	a2,166
  405b8c:	00000000 	nop

00405b90 <__matherr>:
  405b90:	03e00008 	jr	ra
  405b94:	00001021 	move	v0,zero
	...

00405ba0 <checkint>:
  405ba0:	44066800 	mfc1	a2,$f13
  405ba4:	3c027fff 	lui	v0,0x7fff
  405ba8:	3442ffff 	ori	v0,v0,0xffff
  405bac:	3c037fef 	lui	v1,0x7fef
  405bb0:	00c22024 	and	a0,a2,v0
  405bb4:	3463ffff 	ori	v1,v1,0xffff
  405bb8:	0064182a 	slt	v1,v1,a0
  405bbc:	14600022 	bnez	v1,405c48 <checkint+0xa8>
  405bc0:	00002821 	move	a1,zero
  405bc4:	3c02433f 	lui	v0,0x433f
  405bc8:	3442ffff 	ori	v0,v0,0xffff
  405bcc:	0044102a 	slt	v0,v0,a0
  405bd0:	1440001d 	bnez	v0,405c48 <checkint+0xa8>
  405bd4:	24050001 	li	a1,1
  405bd8:	3c023fff 	lui	v0,0x3fff
  405bdc:	3442ffff 	ori	v0,v0,0xffff
  405be0:	0044102a 	slt	v0,v0,a0
  405be4:	10400018 	beqz	v0,405c48 <checkint+0xa8>
  405be8:	00002821 	move	a1,zero
  405bec:	00044503 	sra	t0,a0,0x14
  405bf0:	2503fc01 	addiu	v1,t0,-1023
  405bf4:	24020034 	li	v0,52
  405bf8:	44066000 	mfc1	a2,$f12
  405bfc:	1062001b 	beq	v1,v0,405c6c <checkint+0xcc>
  405c00:	30c20001 	andi	v0,a2,0x1
  405c04:	28620015 	slti	v0,v1,21
  405c08:	10400011 	beqz	v0,405c50 <checkint+0xb0>
  405c0c:	2502fbed 	addiu	v0,t0,-1043
  405c10:	14c0000d 	bnez	a2,405c48 <checkint+0xa8>
  405c14:	00000000 	nop
  405c18:	24020014 	li	v0,20
  405c1c:	10620016 	beq	v1,v0,405c78 <checkint+0xd8>
  405c20:	30820001 	andi	v0,a0,0x1
  405c24:	2502fc0d 	addiu	v0,t0,-1011
  405c28:	00441004 	sllv	v0,a0,v0
  405c2c:	14400006 	bnez	v0,405c48 <checkint+0xa8>
  405c30:	00000000 	nop
  405c34:	2502fc0c 	addiu	v0,t0,-1012
  405c38:	00441004 	sllv	v0,a0,v0
  405c3c:	0002102b 	sltu	v0,zero,v0
  405c40:	00021023 	negu	v0,v0
  405c44:	34450001 	ori	a1,v0,0x1
  405c48:	03e00008 	jr	ra
  405c4c:	00a01021 	move	v0,a1
  405c50:	00461004 	sllv	v0,a2,v0
  405c54:	1440fffc 	bnez	v0,405c48 <checkint+0xa8>
  405c58:	00002821 	move	a1,zero
  405c5c:	2502fbec 	addiu	v0,t0,-1044
  405c60:	00461004 	sllv	v0,a2,v0
  405c64:	08101710 	j	405c40 <checkint+0xa0>
  405c68:	0002102b 	sltu	v0,zero,v0
  405c6c:	00021023 	negu	v0,v0
  405c70:	08101712 	j	405c48 <checkint+0xa8>
  405c74:	34450001 	ori	a1,v0,0x1
  405c78:	00021023 	negu	v0,v0
  405c7c:	08101712 	j	405c48 <checkint+0xa8>
  405c80:	34450001 	ori	a1,v0,0x1

00405c84 <__ieee754_pow>:
  405c84:	27bdff78 	addiu	sp,sp,-136
  405c88:	f7be0080 	sdc1	$f30,128(sp)
  405c8c:	46207786 	mov.d	$f30,$f14
  405c90:	afb40048 	sw	s4,72(sp)
  405c94:	afb30044 	sw	s3,68(sp)
  405c98:	44146800 	mfc1	s4,$f13
  405c9c:	4413f000 	mfc1	s3,$f30
  405ca0:	afb5004c 	sw	s5,76(sp)
  405ca4:	afb20040 	sw	s2,64(sp)
  405ca8:	afb1003c 	sw	s1,60(sp)
  405cac:	afb00038 	sw	s0,56(sp)
  405cb0:	afbf0050 	sw	ra,80(sp)
  405cb4:	f7bc0078 	sdc1	$f28,120(sp)
  405cb8:	f7ba0070 	sdc1	$f26,112(sp)
  405cbc:	f7b80068 	sdc1	$f24,104(sp)
  405cc0:	f7b60060 	sdc1	$f22,96(sp)
  405cc4:	f7b40058 	sdc1	$f20,88(sp)
  405cc8:	44156000 	mfc1	s5,$f12
  405ccc:	44127800 	mfc1	s2,$f15
  405cd0:	44116000 	mfc1	s1,$f12
  405cd4:	16600026 	bnez	s3,405d70 <__ieee754_pow+0xec>
  405cd8:	02808021 	move	s0,s4
  405cdc:	3c027fff 	lui	v0,0x7fff
  405ce0:	3442ffff 	ori	v0,v0,0xffff
  405ce4:	02822024 	and	a0,s4,v0
  405ce8:	3c027ff0 	lui	v0,0x7ff0
  405cec:	108201ea 	beq	a0,v0,406498 <__ieee754_pow+0x814>
  405cf0:	00000000 	nop
  405cf4:	0044102a 	slt	v0,v0,a0
  405cf8:	144001d6 	bnez	v0,406454 <__ieee754_pow+0x7d0>
  405cfc:	3c020046 	lui	v0,0x46
  405d00:	3c030046 	lui	v1,0x46
  405d04:	d4627ab8 	ldc1	$f2,31416(v1)
  405d08:	44956000 	mtc1	s5,$f12
  405d0c:	4622f032 	c.eq.d	$f30,$f2
  405d10:	44946800 	mtc1	s4,$f13
  405d14:	450101d1 	bc1t	40645c <__ieee754_pow+0x7d8>
  405d18:	8fbf0050 	lw	ra,80(sp)
  405d1c:	3c020047 	lui	v0,0x47
  405d20:	d44019b0 	ldc1	$f0,6576(v0)
  405d24:	4620f032 	c.eq.d	$f30,$f0
  405d28:	00000000 	nop
  405d2c:	45000003 	bc1f	405d3c <__ieee754_pow+0xb8>
  405d30:	3c020047 	lui	v0,0x47
  405d34:	08101917 	j	40645c <__ieee754_pow+0x7d8>
  405d38:	462c6302 	mul.d	$f12,$f12,$f12
  405d3c:	d44019b8 	ldc1	$f0,6584(v0)
  405d40:	4620f032 	c.eq.d	$f30,$f0
  405d44:	00000000 	nop
  405d48:	45010251 	bc1t	406690 <__ieee754_pow+0xa0c>
  405d4c:	00000000 	nop
  405d50:	44800000 	mtc1	zero,$f0
  405d54:	00000000 	nop
  405d58:	44800800 	mtc1	zero,$f1
  405d5c:	00000000 	nop
  405d60:	4620f032 	c.eq.d	$f30,$f0
  405d64:	00000000 	nop
  405d68:	450101bb 	bc1t	406458 <__ieee754_pow+0x7d4>
  405d6c:	46201306 	mov.d	$f12,$f2
  405d70:	3c027fef 	lui	v0,0x7fef
  405d74:	2603ffff 	addiu	v1,s0,-1
  405d78:	3442fffe 	ori	v0,v0,0xfffe
  405d7c:	0043102b 	sltu	v0,v0,v1
  405d80:	50400026 	beqzl	v0,405e1c <__ieee754_pow+0x198>
  405d84:	3c037fff 	lui	v1,0x7fff
  405d88:	12000022 	beqz	s0,405e14 <__ieee754_pow+0x190>
  405d8c:	00000000 	nop
  405d90:	4480a000 	mtc1	zero,$f20
  405d94:	44955000 	mtc1	s5,$f10
  405d98:	4480a800 	mtc1	zero,$f21
  405d9c:	44945800 	mtc1	s4,$f11
  405da0:	00000000 	nop
  405da4:	46345032 	c.eq.d	$f10,$f20
  405da8:	00000000 	nop
  405dac:	450001d4 	bc1f	406500 <__ieee754_pow+0x87c>
  405db0:	3c027fff 	lui	v0,0x7fff
  405db4:	3442ffff 	ori	v0,v0,0xffff
  405db8:	02421024 	and	v0,s2,v0
  405dbc:	3c037ff0 	lui	v1,0x7ff0
  405dc0:	10430213 	beq	v0,v1,406610 <__ieee754_pow+0x98c>
  405dc4:	00000000 	nop
  405dc8:	0062102a 	slt	v0,v1,v0
  405dcc:	104001b6 	beqz	v0,4064a8 <__ieee754_pow+0x824>
  405dd0:	4620f306 	mov.d	$f12,$f30
  405dd4:	8fbf0050 	lw	ra,80(sp)
  405dd8:	8fb5004c 	lw	s5,76(sp)
  405ddc:	8fb40048 	lw	s4,72(sp)
  405de0:	8fb30044 	lw	s3,68(sp)
  405de4:	8fb20040 	lw	s2,64(sp)
  405de8:	8fb1003c 	lw	s1,60(sp)
  405dec:	8fb00038 	lw	s0,56(sp)
  405df0:	d7be0080 	ldc1	$f30,128(sp)
  405df4:	d7bc0078 	ldc1	$f28,120(sp)
  405df8:	d7ba0070 	ldc1	$f26,112(sp)
  405dfc:	d7b80068 	ldc1	$f24,104(sp)
  405e00:	d7b60060 	ldc1	$f22,96(sp)
  405e04:	d7b40058 	ldc1	$f20,88(sp)
  405e08:	46206006 	mov.d	$f0,$f12
  405e0c:	03e00008 	jr	ra
  405e10:	27bd0088 	addiu	sp,sp,136
  405e14:	1220ffde 	beqz	s1,405d90 <__ieee754_pow+0x10c>
  405e18:	3c037fff 	lui	v1,0x7fff
  405e1c:	3463ffff 	ori	v1,v1,0xffff
  405e20:	3c024fef 	lui	v0,0x4fef
  405e24:	02431824 	and	v1,s2,v1
  405e28:	3442ffff 	ori	v0,v0,0xffff
  405e2c:	0043102a 	slt	v0,v0,v1
  405e30:	1440ffd7 	bnez	v0,405d90 <__ieee754_pow+0x10c>
  405e34:	3c02000f 	lui	v0,0xf
  405e38:	44803000 	mtc1	zero,$f6
  405e3c:	00000000 	nop
  405e40:	44803800 	mtc1	zero,$f7
  405e44:	3444ffff 	ori	a0,v0,0xffff
  405e48:	44951000 	mtc1	s5,$f2
  405e4c:	3c110047 	lui	s1,0x47
  405e50:	0094102a 	slt	v0,a0,s4
  405e54:	02a04821 	move	t1,s5
  405e58:	02801821 	move	v1,s4
  405e5c:	f7a60020 	sdc1	$f6,32(sp)
  405e60:	f7a60018 	sdc1	$f6,24(sp)
  405e64:	44941800 	mtc1	s4,$f3
  405e68:	27ac0018 	addiu	t4,sp,24
  405e6c:	27a50020 	addiu	a1,sp,32
  405e70:	14400009 	bnez	v0,405e98 <__ieee754_pow+0x214>
  405e74:	8e2a19a8 	lw	t2,6568(s1)
  405e78:	3c030047 	lui	v1,0x47
  405e7c:	d46019a0 	ldc1	$f0,6560(v1)
  405e80:	3c020047 	lui	v0,0x47
  405e84:	d44619c0 	ldc1	$f6,6592(v0)
  405e88:	46201082 	mul.d	$f2,$f2,$f0
  405e8c:	44081800 	mfc1	t0,$f3
  405e90:	44091000 	mfc1	t1,$f2
  405e94:	01001821 	move	v1,t0
  405e98:	3c020006 	lui	v0,0x6
  405e9c:	00642024 	and	a0,v1,a0
  405ea0:	3442a09d 	ori	v0,v0,0xa09d
  405ea4:	0044102a 	slt	v0,v0,a0
  405ea8:	544001d5 	bnezl	v0,406600 <__ieee754_pow+0x97c>
  405eac:	00031d03 	sra	v1,v1,0x14
  405eb0:	3c023ff0 	lui	v0,0x3ff0
  405eb4:	00824025 	or	t0,a0,v0
  405eb8:	00035d03 	sra	t3,v1,0x14
  405ebc:	3c120047 	lui	s2,0x47
  405ec0:	44892000 	mtc1	t1,$f4
  405ec4:	d6401998 	ldc1	$f0,6552(s2)
  405ec8:	44882800 	mtc1	t0,$f5
  405ecc:	240203ff 	li	v0,1023
  405ed0:	46240100 	add.d	$f4,$f0,$f4
  405ed4:	44072000 	mfc1	a3,$f4
  405ed8:	46202381 	sub.d	$f14,$f4,$f0
  405edc:	30e303ff 	andi	v1,a3,0x3ff
  405ee0:	116201f0 	beq	t3,v0,4066a4 <__ieee754_pow+0xa20>
  405ee4:	00032080 	sll	a0,v1,0x2
  405ee8:	44890000 	mtc1	t1,$f0
  405eec:	3c020047 	lui	v0,0x47
  405ef0:	2442bef8 	addiu	v0,v0,-16648
  405ef4:	44880800 	mtc1	t0,$f1
  405ef8:	00031940 	sll	v1,v1,0x5
  405efc:	00621821 	addu	v1,v1,v0
  405f00:	462e0101 	sub.d	$f4,$f0,$f14
  405f04:	d4620008 	ldc1	$f2,8(v1)
  405f08:	d4600000 	ldc1	$f0,0(v1)
  405f0c:	3c020046 	lui	v0,0x46
  405f10:	46241302 	mul.d	$f12,$f2,$f4
  405f14:	46240502 	mul.d	$f20,$f0,$f4
  405f18:	448b1000 	mtc1	t3,$f2
  405f1c:	d4447af0 	ldc1	$f4,31472(v0)
  405f20:	448a1800 	mtc1	t2,$f3
  405f24:	3c020047 	lui	v0,0x47
  405f28:	46241101 	sub.d	$f4,$f2,$f4
  405f2c:	462ca380 	add.d	$f14,$f20,$f12
  405f30:	d4421a20 	ldc1	$f2,6688(v0)
  405f34:	3c020047 	lui	v0,0x47
  405f38:	d4401a28 	ldc1	$f0,6696(v0)
  405f3c:	46227082 	mul.d	$f2,$f14,$f2
  405f40:	3c020046 	lui	v0,0x46
  405f44:	46262100 	add.d	$f4,$f4,$f6
  405f48:	d4660010 	ldc1	$f6,16(v1)
  405f4c:	462e7202 	mul.d	$f8,$f14,$f14
  405f50:	462ea281 	sub.d	$f10,$f20,$f14
  405f54:	46201080 	add.d	$f2,$f2,$f0
  405f58:	d4407ae8 	ldc1	$f0,31464(v0)
  405f5c:	3c020047 	lui	v0,0x47
  405f60:	462e1082 	mul.d	$f2,$f2,$f14
  405f64:	46240002 	mul.d	$f0,$f0,$f4
  405f68:	462a6300 	add.d	$f12,$f12,$f10
  405f6c:	46260400 	add.d	$f16,$f0,$f6
  405f70:	d4401a30 	ldc1	$f0,6704(v0)
  405f74:	3c020046 	lui	v0,0x46
  405f78:	d4467ae0 	ldc1	$f6,31456(v0)
  405f7c:	46201080 	add.d	$f2,$f2,$f0
  405f80:	462e8480 	add.d	$f18,$f16,$f14
  405f84:	3c020047 	lui	v0,0x47
  405f88:	462e1082 	mul.d	$f2,$f2,$f14
  405f8c:	d4401a38 	ldc1	$f0,6712(v0)
  405f90:	46243182 	mul.d	$f6,$f6,$f4
  405f94:	46328101 	sub.d	$f4,$f16,$f18
  405f98:	3c020047 	lui	v0,0x47
  405f9c:	46201080 	add.d	$f2,$f2,$f0
  405fa0:	462e2100 	add.d	$f4,$f4,$f14
  405fa4:	d4600018 	ldc1	$f0,24(v1)
  405fa8:	462e1082 	mul.d	$f2,$f2,$f14
  405fac:	46262100 	add.d	$f4,$f4,$f6
  405fb0:	46202100 	add.d	$f4,$f4,$f0
  405fb4:	d4401a10 	ldc1	$f0,6672(v0)
  405fb8:	3c020047 	lui	v0,0x47
  405fbc:	462c2100 	add.d	$f4,$f4,$f12
  405fc0:	46201080 	add.d	$f2,$f2,$f0
  405fc4:	d4401a00 	ldc1	$f0,6656(v0)
  405fc8:	46224202 	mul.d	$f8,$f8,$f2
  405fcc:	f4a00000 	sdc1	$f0,0(a1)
  405fd0:	46282080 	add.d	$f2,$f4,$f8
  405fd4:	46229200 	add.d	$f8,$f18,$f2
  405fd8:	46289001 	sub.d	$f0,$f18,$f8
  405fdc:	46220000 	add.d	$f0,$f0,$f2
  405fe0:	3c100047 	lui	s0,0x47
  405fe4:	d6021a40 	ldc1	$f2,6720(s0)
  405fe8:	f5800000 	sdc1	$f0,0(t4)
  405fec:	44800000 	mtc1	zero,$f0
  405ff0:	4622f302 	mul.d	$f12,$f30,$f2
  405ff4:	44800800 	mtc1	zero,$f1
  405ff8:	00000000 	nop
  405ffc:	463e003c 	c.lt.d	$f0,$f30
  406000:	463e6101 	sub.d	$f4,$f12,$f30
  406004:	46246101 	sub.d	$f4,$f12,$f4
  406008:	46224302 	mul.d	$f12,$f8,$f2
  40600c:	4624f181 	sub.d	$f6,$f30,$f4
  406010:	46286001 	sub.d	$f0,$f12,$f8
  406014:	46206301 	sub.d	$f12,$f12,$f0
  406018:	d7a00018 	ldc1	$f0,24(sp)
  40601c:	462c4201 	sub.d	$f8,$f8,$f12
  406020:	462c3182 	mul.d	$f6,$f6,$f12
  406024:	462c2102 	mul.d	$f4,$f4,$f12
  406028:	46204380 	add.d	$f14,$f8,$f0
  40602c:	462ef082 	mul.d	$f2,$f30,$f14
  406030:	46223180 	add.d	$f6,$f6,$f2
  406034:	46262300 	add.d	$f12,$f4,$f6
  406038:	f7a60018 	sdc1	$f6,24(sp)
  40603c:	462c2101 	sub.d	$f4,$f4,$f12
  406040:	4500016b 	bc1f	4065f0 <__ieee754_pow+0x96c>
  406044:	46262380 	add.d	$f14,$f4,$f6
  406048:	d7a00020 	ldc1	$f0,32(sp)
  40604c:	4620f082 	mul.d	$f2,$f30,$f0
  406050:	3c130047 	lui	s3,0x47
  406054:	d6601a48 	ldc1	$f0,6728(s3)
  406058:	f7a20020 	sdc1	$f2,32(sp)
  40605c:	46201002 	mul.d	$f0,$f2,$f0
  406060:	f7a00010 	sdc1	$f0,16(sp)
  406064:	0c101d6b 	jal	4075ac <__exp1>
  406068:	00000000 	nop
  40606c:	46200306 	mov.d	$f12,$f0
  406070:	44800000 	mtc1	zero,$f0
  406074:	00000000 	nop
  406078:	44800800 	mtc1	zero,$f1
  40607c:	00000000 	nop
  406080:	462c003c 	c.lt.d	$f0,$f12
  406084:	00000000 	nop
  406088:	45030157 	bc1tl	4065e8 <__ieee754_pow+0x964>
  40608c:	46206006 	mov.d	$f0,$f12
  406090:	3c02000f 	lui	v0,0xf
  406094:	3444ffff 	ori	a0,v0,0xffff
  406098:	44952000 	mtc1	s5,$f4
  40609c:	0094102a 	slt	v0,a0,s4
  4060a0:	02a04821 	move	t1,s5
  4060a4:	02801821 	move	v1,s4
  4060a8:	46200206 	mov.d	$f8,$f0
  4060ac:	8e2a19a8 	lw	t2,6568(s1)
  4060b0:	f7a00030 	sdc1	$f0,48(sp)
  4060b4:	f7a00028 	sdc1	$f0,40(sp)
  4060b8:	44942800 	mtc1	s4,$f5
  4060bc:	27a50028 	addiu	a1,sp,40
  4060c0:	10400157 	beqz	v0,406620 <__ieee754_pow+0x99c>
  4060c4:	27ac0030 	addiu	t4,sp,48
  4060c8:	3c020006 	lui	v0,0x6
  4060cc:	00642024 	and	a0,v1,a0
  4060d0:	3442a09d 	ori	v0,v0,0xa09d
  4060d4:	0044102a 	slt	v0,v0,a0
  4060d8:	54400209 	bnezl	v0,406900 <__ieee754_pow+0xc7c>
  4060dc:	00031d03 	sra	v1,v1,0x14
  4060e0:	3c023ff0 	lui	v0,0x3ff0
  4060e4:	00824025 	or	t0,a0,v0
  4060e8:	00035d03 	sra	t3,v1,0x14
  4060ec:	44895000 	mtc1	t1,$f10
  4060f0:	d6401998 	ldc1	$f0,6552(s2)
  4060f4:	44885800 	mtc1	t0,$f11
  4060f8:	396303ff 	xori	v1,t3,0x3ff
  4060fc:	462a0280 	add.d	$f10,$f0,$f10
  406100:	2c630001 	sltiu	v1,v1,1
  406104:	44075000 	mfc1	a3,$f10
  406108:	00000000 	nop
  40610c:	30e403ff 	andi	a0,a3,0x3ff
  406110:	00041080 	sll	v0,a0,0x2
  406114:	384204b0 	xori	v0,v0,0x4b0
  406118:	2c420001 	sltiu	v0,v0,1
  40611c:	00621824 	and	v1,v1,v0
  406120:	1060019a 	beqz	v1,40678c <__ieee754_pow+0xb08>
  406124:	46205501 	sub.d	$f20,$f10,$f0
  406128:	3c020046 	lui	v0,0x46
  40612c:	d4407ab8 	ldc1	$f0,31416(v0)
  406130:	d6021a40 	ldc1	$f2,6720(s0)
  406134:	3c020047 	lui	v0,0x47
  406138:	46202701 	sub.d	$f28,$f4,$f0
  40613c:	d4561a50 	ldc1	$f22,6736(v0)
  406140:	4480c000 	mtc1	zero,$f24
  406144:	4622e502 	mul.d	$f20,$f28,$f2
  406148:	4636e302 	mul.d	$f12,$f28,$f22
  40614c:	4480c800 	mtc1	zero,$f25
  406150:	3c030047 	lui	v1,0x47
  406154:	d4681a10 	ldc1	$f8,6672(v1)
  406158:	4634e001 	sub.d	$f0,$f28,$f20
  40615c:	462cc03c 	c.lt.d	$f24,$f12
  406160:	46340400 	add.d	$f16,$f0,$f20
  406164:	46286500 	add.d	$f20,$f12,$f8
  406168:	46368002 	mul.d	$f0,$f16,$f22
  40616c:	46388182 	mul.d	$f6,$f16,$f24
  406170:	4630e681 	sub.d	$f26,$f28,$f16
  406174:	4636d102 	mul.d	$f4,$f26,$f22
  406178:	462c0001 	sub.d	$f0,$f0,$f12
  40617c:	4638d082 	mul.d	$f2,$f26,$f24
  406180:	46260000 	add.d	$f0,$f0,$f6
  406184:	46240000 	add.d	$f0,$f0,$f4
  406188:	4500025b 	bc1f	406af8 <__ieee754_pow+0xe74>
  40618c:	46220180 	add.d	$f6,$f0,$f2
  406190:	3c020046 	lui	v0,0x46
  406194:	d4407198 	ldc1	$f0,29080(v0)
  406198:	4620603c 	c.lt.d	$f12,$f0
  40619c:	00000000 	nop
  4061a0:	4502024d 	bc1fl	406ad8 <__ieee754_pow+0xe54>
  4061a4:	46346001 	sub.d	$f0,$f12,$f20
  4061a8:	d4601a10 	ldc1	$f0,6672(v1)
  4061ac:	44801000 	mtc1	zero,$f2
  4061b0:	46340001 	sub.d	$f0,$f0,$f20
  4061b4:	44801800 	mtc1	zero,$f3
  4061b8:	462c0000 	add.d	$f0,$f0,$f12
  4061bc:	46260000 	add.d	$f0,$f0,$f6
  4061c0:	46220400 	add.d	$f16,$f0,$f2
  4061c4:	4630a600 	add.d	$f24,$f20,$f16
  4061c8:	d60a1a40 	ldc1	$f10,6720(s0)
  4061cc:	44807000 	mtc1	zero,$f14
  4061d0:	4638a001 	sub.d	$f0,$f20,$f24
  4061d4:	462ae502 	mul.d	$f20,$f28,$f10
  4061d8:	44807800 	mtc1	zero,$f15
  4061dc:	46300080 	add.d	$f2,$f0,$f16
  4061e0:	462ec102 	mul.d	$f4,$f24,$f14
  4061e4:	3c020047 	lui	v0,0x47
  4061e8:	4622e302 	mul.d	$f12,$f28,$f2
  4061ec:	4634e481 	sub.d	$f18,$f28,$f20
  4061f0:	d4421a58 	ldc1	$f2,6744(v0)
  4061f4:	3c020047 	lui	v0,0x47
  4061f8:	46349400 	add.d	$f16,$f18,$f20
  4061fc:	462ac502 	mul.d	$f20,$f24,$f10
  406200:	46246300 	add.d	$f12,$f12,$f4
  406204:	4622e082 	mul.d	$f2,$f28,$f2
  406208:	d4401a60 	ldc1	$f0,6752(v0)
  40620c:	4630e681 	sub.d	$f26,$f28,$f16
  406210:	3c020047 	lui	v0,0x47
  406214:	4634c101 	sub.d	$f4,$f24,$f20
  406218:	463ce202 	mul.d	$f8,$f28,$f28
  40621c:	46201080 	add.d	$f2,$f2,$f0
  406220:	46342580 	add.d	$f22,$f4,$f20
  406224:	d4401a68 	ldc1	$f0,6760(v0)
  406228:	463c1082 	mul.d	$f2,$f2,$f28
  40622c:	4636c601 	sub.d	$f24,$f24,$f22
  406230:	4636d182 	mul.d	$f6,$f26,$f22
  406234:	46368502 	mul.d	$f20,$f16,$f22
  406238:	46388102 	mul.d	$f4,$f16,$f24
  40623c:	4638d402 	mul.d	$f16,$f26,$f24
  406240:	46201080 	add.d	$f2,$f2,$f0
  406244:	3c020047 	lui	v0,0x47
  406248:	d4401a70 	ldc1	$f0,6768(v0)
  40624c:	463c1082 	mul.d	$f2,$f2,$f28
  406250:	46262600 	add.d	$f24,$f4,$f6
  406254:	3c020047 	lui	v0,0x47
  406258:	463c4202 	mul.d	$f8,$f8,$f28
  40625c:	4638a580 	add.d	$f22,$f20,$f24
  406260:	463c703c 	c.lt.d	$f14,$f28
  406264:	46201080 	add.d	$f2,$f2,$f0
  406268:	4636a101 	sub.d	$f4,$f20,$f22
  40626c:	d44019f0 	ldc1	$f0,6640(v0)
  406270:	463c1082 	mul.d	$f2,$f2,$f28
  406274:	46382100 	add.d	$f4,$f4,$f24
  406278:	462ae502 	mul.d	$f20,$f28,$f10
  40627c:	3c020047 	lui	v0,0x47
  406280:	46302180 	add.d	$f6,$f4,$f16
  406284:	46201080 	add.d	$f2,$f2,$f0
  406288:	462c3180 	add.d	$f6,$f6,$f12
  40628c:	46349400 	add.d	$f16,$f18,$f20
  406290:	463c1082 	mul.d	$f2,$f2,$f28
  406294:	4626b300 	add.d	$f12,$f22,$f6
  406298:	d4401a78 	ldc1	$f0,6776(v0)
  40629c:	462a6502 	mul.d	$f20,$f12,$f10
  4062a0:	462cb101 	sub.d	$f4,$f22,$f12
  4062a4:	46201080 	add.d	$f2,$f2,$f0
  4062a8:	462e6382 	mul.d	$f14,$f12,$f14
  4062ac:	46262180 	add.d	$f6,$f4,$f6
  4062b0:	46224202 	mul.d	$f8,$f8,$f2
  4062b4:	46346001 	sub.d	$f0,$f12,$f20
  4062b8:	4626e102 	mul.d	$f4,$f28,$f6
  4062bc:	46340580 	add.d	$f22,$f0,$f20
  4062c0:	46366601 	sub.d	$f24,$f12,$f22
  4062c4:	4636d082 	mul.d	$f2,$f26,$f22
  4062c8:	46368502 	mul.d	$f20,$f16,$f22
  4062cc:	46388002 	mul.d	$f0,$f16,$f24
  4062d0:	4638d182 	mul.d	$f6,$f26,$f24
  4062d4:	462e2100 	add.d	$f4,$f4,$f14
  4062d8:	46220600 	add.d	$f24,$f0,$f2
  4062dc:	4638a580 	add.d	$f22,$f20,$f24
  4062e0:	4636a001 	sub.d	$f0,$f20,$f22
  4062e4:	46380000 	add.d	$f0,$f0,$f24
  4062e8:	46260180 	add.d	$f6,$f0,$f6
  4062ec:	46243180 	add.d	$f6,$f6,$f4
  4062f0:	4626b600 	add.d	$f24,$f22,$f6
  4062f4:	4638e680 	add.d	$f26,$f28,$f24
  4062f8:	4638b081 	sub.d	$f2,$f22,$f24
  4062fc:	463ae001 	sub.d	$f0,$f28,$f26
  406300:	46261080 	add.d	$f2,$f2,$f6
  406304:	46380000 	add.d	$f0,$f0,$f24
  406308:	46220000 	add.d	$f0,$f0,$f2
  40630c:	46280380 	add.d	$f14,$f0,$f8
  406310:	450001fc 	bc1f	406b04 <__ieee754_pow+0xe80>
  406314:	462ed500 	add.d	$f20,$f26,$f14
  406318:	3c020047 	lui	v0,0x47
  40631c:	d4401a80 	ldc1	$f0,6784(v0)
  406320:	4620e082 	mul.d	$f2,$f28,$f0
  406324:	4634d001 	sub.d	$f0,$f26,$f20
  406328:	462e0000 	add.d	$f0,$f0,$f14
  40632c:	f5820000 	sdc1	$f2,0(t4)
  406330:	f4a00000 	sdc1	$f0,0(a1)
  406334:	d60a1a40 	ldc1	$f10,6720(s0)
  406338:	44800000 	mtc1	zero,$f0
  40633c:	4634f182 	mul.d	$f6,$f30,$f20
  406340:	462af302 	mul.d	$f12,$f30,$f10
  406344:	44800800 	mtc1	zero,$f1
  406348:	d7a80028 	ldc1	$f8,40(sp)
  40634c:	463e003c 	c.lt.d	$f0,$f30
  406350:	463e4202 	mul.d	$f8,$f8,$f30
  406354:	463e6081 	sub.d	$f2,$f12,$f30
  406358:	46226081 	sub.d	$f2,$f12,$f2
  40635c:	462aa302 	mul.d	$f12,$f20,$f10
  406360:	4622f101 	sub.d	$f4,$f30,$f2
  406364:	46346001 	sub.d	$f0,$f12,$f20
  406368:	46206301 	sub.d	$f12,$f12,$f0
  40636c:	462ca381 	sub.d	$f14,$f20,$f12
  406370:	462c1002 	mul.d	$f0,$f2,$f12
  406374:	462c2282 	mul.d	$f10,$f4,$f12
  406378:	462e1082 	mul.d	$f2,$f2,$f14
  40637c:	462e2102 	mul.d	$f4,$f4,$f14
  406380:	46260001 	sub.d	$f0,$f0,$f6
  406384:	46220000 	add.d	$f0,$f0,$f2
  406388:	462a0000 	add.d	$f0,$f0,$f10
  40638c:	46240000 	add.d	$f0,$f0,$f4
  406390:	46280000 	add.d	$f0,$f0,$f8
  406394:	46203300 	add.d	$f12,$f6,$f0
  406398:	f7a00028 	sdc1	$f0,40(sp)
  40639c:	462c3181 	sub.d	$f6,$f6,$f12
  4063a0:	4500015b 	bc1f	406910 <__ieee754_pow+0xc8c>
  4063a4:	46203380 	add.d	$f14,$f6,$f0
  4063a8:	d7a00030 	ldc1	$f0,48(sp)
  4063ac:	4620f082 	mul.d	$f2,$f30,$f0
  4063b0:	d6601a48 	ldc1	$f0,6728(s3)
  4063b4:	f7a20030 	sdc1	$f2,48(sp)
  4063b8:	46201002 	mul.d	$f0,$f2,$f0
  4063bc:	f7a00010 	sdc1	$f0,16(sp)
  4063c0:	0c101d6b 	jal	4075ac <__exp1>
  4063c4:	00000000 	nop
  4063c8:	46200306 	mov.d	$f12,$f0
  4063cc:	44800000 	mtc1	zero,$f0
  4063d0:	00000000 	nop
  4063d4:	44800800 	mtc1	zero,$f1
  4063d8:	00000000 	nop
  4063dc:	462c003e 	c.le.d	$f0,$f12
  4063e0:	00000000 	nop
  4063e4:	45010080 	bc1t	4065e8 <__ieee754_pow+0x964>
  4063e8:	46206006 	mov.d	$f0,$f12
  4063ec:	44956000 	mtc1	s5,$f12
  4063f0:	00000000 	nop
  4063f4:	44946800 	mtc1	s4,$f13
  4063f8:	f7b40010 	sdc1	$f20,16(sp)
  4063fc:	0c101be0 	jal	406f80 <__slowpow>
  406400:	4620f386 	mov.d	$f14,$f30
  406404:	46200306 	mov.d	$f12,$f0
  406408:	8fbf0050 	lw	ra,80(sp)
  40640c:	8fb5004c 	lw	s5,76(sp)
  406410:	8fb40048 	lw	s4,72(sp)
  406414:	8fb30044 	lw	s3,68(sp)
  406418:	8fb20040 	lw	s2,64(sp)
  40641c:	8fb1003c 	lw	s1,60(sp)
  406420:	8fb00038 	lw	s0,56(sp)
  406424:	d7be0080 	ldc1	$f30,128(sp)
  406428:	d7bc0078 	ldc1	$f28,120(sp)
  40642c:	d7ba0070 	ldc1	$f26,112(sp)
  406430:	d7b80068 	ldc1	$f24,104(sp)
  406434:	d7b60060 	ldc1	$f22,96(sp)
  406438:	d7b40058 	ldc1	$f20,88(sp)
  40643c:	46206006 	mov.d	$f0,$f12
  406440:	03e00008 	jr	ra
  406444:	27bd0088 	addiu	sp,sp,136
  406448:	12200037 	beqz	s1,406528 <__ieee754_pow+0x8a4>
  40644c:	0066102a 	slt	v0,v1,a2
  406450:	3c020046 	lui	v0,0x46
  406454:	d44c7ad8 	ldc1	$f12,31448(v0)
  406458:	8fbf0050 	lw	ra,80(sp)
  40645c:	8fb5004c 	lw	s5,76(sp)
  406460:	8fb40048 	lw	s4,72(sp)
  406464:	8fb30044 	lw	s3,68(sp)
  406468:	8fb20040 	lw	s2,64(sp)
  40646c:	8fb1003c 	lw	s1,60(sp)
  406470:	8fb00038 	lw	s0,56(sp)
  406474:	d7be0080 	ldc1	$f30,128(sp)
  406478:	d7bc0078 	ldc1	$f28,120(sp)
  40647c:	d7ba0070 	ldc1	$f26,112(sp)
  406480:	d7b80068 	ldc1	$f24,104(sp)
  406484:	d7b60060 	ldc1	$f22,96(sp)
  406488:	d7b40058 	ldc1	$f20,88(sp)
  40648c:	46206006 	mov.d	$f0,$f12
  406490:	03e00008 	jr	ra
  406494:	27bd0088 	addiu	sp,sp,136
  406498:	5620ffee 	bnezl	s1,406454 <__ieee754_pow+0x7d0>
  40649c:	3c020046 	lui	v0,0x46
  4064a0:	0810173e 	j	405cf8 <__ieee754_pow+0x74>
  4064a4:	0044102a 	slt	v0,v0,a0
  4064a8:	463ea03c 	c.lt.d	$f20,$f30
  4064ac:	00000000 	nop
  4064b0:	45010064 	bc1t	406644 <__ieee754_pow+0x9c0>
  4064b4:	3c020047 	lui	v0,0x47
  4064b8:	3c020047 	lui	v0,0x47
  4064bc:	d4401aa8 	ldc1	$f0,6824(v0)
  4064c0:	4620f03c 	c.lt.d	$f30,$f0
  4064c4:	00000000 	nop
  4064c8:	45000115 	bc1f	406920 <__ieee754_pow+0xc9c>
  4064cc:	00000000 	nop
  4064d0:	44800000 	mtc1	zero,$f0
  4064d4:	00000000 	nop
  4064d8:	44800800 	mtc1	zero,$f1
  4064dc:	00000000 	nop
  4064e0:	463e003c 	c.lt.d	$f0,$f30
  4064e4:	00000000 	nop
  4064e8:	4503ffc7 	bc1tl	406408 <__ieee754_pow+0x784>
  4064ec:	46200306 	mov.d	$f12,$f0
  4064f0:	3c020046 	lui	v0,0x46
  4064f4:	d4407ad0 	ldc1	$f0,31440(v0)
  4064f8:	08101902 	j	406408 <__ieee754_pow+0x784>
  4064fc:	46200306 	mov.d	$f12,$f0
  406500:	06000121 	bltz	s0,406988 <__ieee754_pow+0xd04>
  406504:	3442ffff 	ori	v0,v0,0xffff
  406508:	02022024 	and	a0,s0,v0
  40650c:	3c057ff0 	lui	a1,0x7ff0
  406510:	00a4182a 	slt	v1,a1,a0
  406514:	1460ffce 	bnez	v1,406450 <__ieee754_pow+0x7cc>
  406518:	02423024 	and	a2,s2,v0
  40651c:	1085ffca 	beq	a0,a1,406448 <__ieee754_pow+0x7c4>
  406520:	3c037ff0 	lui	v1,0x7ff0
  406524:	0066102a 	slt	v0,v1,a2
  406528:	1440004d 	bnez	v0,406660 <__ieee754_pow+0x9dc>
  40652c:	3c020046 	lui	v0,0x46
  406530:	10c30048 	beq	a2,v1,406654 <__ieee754_pow+0x9d0>
  406534:	3c027ff0 	lui	v0,0x7ff0
  406538:	1082001f 	beq	a0,v0,4065b8 <__ieee754_pow+0x934>
  40653c:	3c03ba0f 	lui	v1,0xba0f
  406540:	3463ffff 	ori	v1,v1,0xffff
  406544:	3c0239ff 	lui	v0,0x39ff
  406548:	00c31821 	addu	v1,a2,v1
  40654c:	3442fffe 	ori	v0,v0,0xfffe
  406550:	0043102b 	sltu	v0,v0,v1
  406554:	14400182 	bnez	v0,406b60 <__ieee754_pow+0xedc>
  406558:	3c030046 	lui	v1,0x46
  40655c:	44952000 	mtc1	s5,$f4
  406560:	d4607ab8 	ldc1	$f0,31416(v1)
  406564:	44942800 	mtc1	s4,$f5
  406568:	00000000 	nop
  40656c:	46202032 	c.eq.d	$f4,$f0
  406570:	00000000 	nop
  406574:	4501ffb8 	bc1t	406458 <__ieee754_pow+0x7d4>
  406578:	46200306 	mov.d	$f12,$f0
  40657c:	44801000 	mtc1	zero,$f2
  406580:	00000000 	nop
  406584:	44801800 	mtc1	zero,$f3
  406588:	00000000 	nop
  40658c:	463e103c 	c.lt.d	$f2,$f30
  406590:	00000000 	nop
  406594:	450001de 	bc1f	406d10 <__ieee754_pow+0x108c>
  406598:	00000000 	nop
  40659c:	4624003c 	c.lt.d	$f0,$f4
  4065a0:	00000000 	nop
  4065a4:	4503ffd3 	bc1tl	4064f4 <__ieee754_pow+0x870>
  4065a8:	3c020046 	lui	v0,0x46
  4065ac:	46201006 	mov.d	$f0,$f2
  4065b0:	08101902 	j	406408 <__ieee754_pow+0x784>
  4065b4:	46200306 	mov.d	$f12,$f0
  4065b8:	44806000 	mtc1	zero,$f12
  4065bc:	00000000 	nop
  4065c0:	44806800 	mtc1	zero,$f13
  4065c4:	00000000 	nop
  4065c8:	462cf032 	c.eq.d	$f30,$f12
  4065cc:	00000000 	nop
  4065d0:	4501ffa0 	bc1t	406454 <__ieee754_pow+0x7d0>
  4065d4:	3c020046 	lui	v0,0x46
  4065d8:	463e603c 	c.lt.d	$f12,$f30
  4065dc:	00000000 	nop
  4065e0:	4501018b 	bc1t	406c10 <__ieee754_pow+0xf8c>
  4065e4:	46206006 	mov.d	$f0,$f12
  4065e8:	08101902 	j	406408 <__ieee754_pow+0x784>
  4065ec:	46200306 	mov.d	$f12,$f0
  4065f0:	d7a00020 	ldc1	$f0,32(sp)
  4065f4:	4620f087 	neg.d	$f2,$f30
  4065f8:	08101814 	j	406050 <__ieee754_pow+0x3cc>
  4065fc:	46201082 	mul.d	$f2,$f2,$f0
  406600:	3c023fe0 	lui	v0,0x3fe0
  406604:	00824025 	or	t0,a0,v0
  406608:	081017af 	j	405ebc <__ieee754_pow+0x238>
  40660c:	246b0001 	addiu	t3,v1,1
  406610:	5260fdee 	beqzl	s3,405dcc <__ieee754_pow+0x148>
  406614:	0062102a 	slt	v0,v1,v0
  406618:	08101775 	j	405dd4 <__ieee754_pow+0x150>
  40661c:	4620f306 	mov.d	$f12,$f30
  406620:	3c030047 	lui	v1,0x47
  406624:	d46019a0 	ldc1	$f0,6560(v1)
  406628:	3c020047 	lui	v0,0x47
  40662c:	d44819c0 	ldc1	$f8,6592(v0)
  406630:	46202102 	mul.d	$f4,$f4,$f0
  406634:	44082800 	mfc1	t0,$f5
  406638:	44092000 	mfc1	t1,$f4
  40663c:	08101832 	j	4060c8 <__ieee754_pow+0x444>
  406640:	01001821 	move	v1,t0
  406644:	d4401aa0 	ldc1	$f0,6816(v0)
  406648:	463e003c 	c.lt.d	$f0,$f30
  40664c:	08101932 	j	4064c8 <__ieee754_pow+0x844>
  406650:	00000000 	nop
  406654:	1260ffb8 	beqz	s3,406538 <__ieee754_pow+0x8b4>
  406658:	00000000 	nop
  40665c:	3c020046 	lui	v0,0x46
  406660:	44951000 	mtc1	s5,$f2
  406664:	d4407ab8 	ldc1	$f0,31416(v0)
  406668:	44941800 	mtc1	s4,$f3
  40666c:	00000000 	nop
  406670:	46201032 	c.eq.d	$f2,$f0
  406674:	00000000 	nop
  406678:	4503ff63 	bc1tl	406408 <__ieee754_pow+0x784>
  40667c:	46200306 	mov.d	$f12,$f0
  406680:	3c020046 	lui	v0,0x46
  406684:	d4407ad8 	ldc1	$f0,31448(v0)
  406688:	08101902 	j	406408 <__ieee754_pow+0x784>
  40668c:	46200306 	mov.d	$f12,$f0
  406690:	44950000 	mtc1	s5,$f0
  406694:	00000000 	nop
  406698:	44940800 	mtc1	s4,$f1
  40669c:	08101916 	j	406458 <__ieee754_pow+0x7d4>
  4066a0:	46201303 	div.d	$f12,$f2,$f0
  4066a4:	2482fb57 	addiu	v0,a0,-1193
  4066a8:	2c42000f 	sltiu	v0,v0,15
  4066ac:	104000cb 	beqz	v0,4069dc <__ieee754_pow+0xd58>
  4066b0:	3c020047 	lui	v0,0x47
  4066b4:	3c020046 	lui	v0,0x46
  4066b8:	d4407ab8 	ldc1	$f0,31416(v0)
  4066bc:	3c020047 	lui	v0,0x47
  4066c0:	46201401 	sub.d	$f16,$f2,$f0
  4066c4:	d44019d0 	ldc1	$f0,6608(v0)
  4066c8:	3c020047 	lui	v0,0x47
  4066cc:	d44219d8 	ldc1	$f2,6616(v0)
  4066d0:	46208002 	mul.d	$f0,$f16,$f0
  4066d4:	3c020047 	lui	v0,0x47
  4066d8:	d44419c8 	ldc1	$f4,6600(v0)
  4066dc:	3c020047 	lui	v0,0x47
  4066e0:	46308202 	mul.d	$f8,$f16,$f16
  4066e4:	46220000 	add.d	$f0,$f0,$f2
  4066e8:	46248080 	add.d	$f2,$f16,$f4
  4066ec:	46300002 	mul.d	$f0,$f0,$f16
  4066f0:	46241481 	sub.d	$f18,$f2,$f4
  4066f4:	d44219e0 	ldc1	$f2,6624(v0)
  4066f8:	3c020046 	lui	v0,0x46
  4066fc:	d4467198 	ldc1	$f6,29080(v0)
  406700:	3c020047 	lui	v0,0x47
  406704:	46220000 	add.d	$f0,$f0,$f2
  406708:	46328081 	sub.d	$f2,$f16,$f18
  40670c:	46304202 	mul.d	$f8,$f8,$f16
  406710:	46300002 	mul.d	$f0,$f0,$f16
  406714:	46261282 	mul.d	$f10,$f2,$f6
  406718:	d44219e8 	ldc1	$f2,6632(v0)
  40671c:	3c020047 	lui	v0,0x47
  406720:	46269182 	mul.d	$f6,$f18,$f6
  406724:	46328100 	add.d	$f4,$f16,$f18
  406728:	46220000 	add.d	$f0,$f0,$f2
  40672c:	44801000 	mtc1	zero,$f2
  406730:	46245282 	mul.d	$f10,$f10,$f4
  406734:	46300002 	mul.d	$f0,$f0,$f16
  406738:	44801800 	mtc1	zero,$f3
  40673c:	46323182 	mul.d	$f6,$f6,$f18
  406740:	4630103c 	c.lt.d	$f2,$f16
  406744:	d44219f0 	ldc1	$f2,6640(v0)
  406748:	3c020047 	lui	v0,0x47
  40674c:	46220000 	add.d	$f0,$f0,$f2
  406750:	d44219f8 	ldc1	$f2,6648(v0)
  406754:	46268501 	sub.d	$f20,$f16,$f6
  406758:	46300002 	mul.d	$f0,$f0,$f16
  40675c:	46220000 	add.d	$f0,$f0,$f2
  406760:	46204202 	mul.d	$f8,$f8,$f0
  406764:	462a4301 	sub.d	$f12,$f8,$f10
  406768:	450000f6 	bc1f	406b44 <__ieee754_pow+0xec0>
  40676c:	462ca200 	add.d	$f8,$f20,$f12
  406770:	3c020047 	lui	v0,0x47
  406774:	d4401a00 	ldc1	$f0,6656(v0)
  406778:	46208082 	mul.d	$f2,$f16,$f0
  40677c:	4628a001 	sub.d	$f0,$f20,$f8
  406780:	f4a20000 	sdc1	$f2,0(a1)
  406784:	081017f8 	j	405fe0 <__ieee754_pow+0x35c>
  406788:	462c0000 	add.d	$f0,$f0,$f12
  40678c:	3c020047 	lui	v0,0x47
  406790:	2442bef8 	addiu	v0,v0,-16648
  406794:	00042140 	sll	a0,a0,0x5
  406798:	00822021 	addu	a0,a0,v0
  40679c:	d4800008 	ldc1	$f0,8(a0)
  4067a0:	d48c0000 	ldc1	$f12,0(a0)
  4067a4:	3c020047 	lui	v0,0x47
  4067a8:	d44abef0 	ldc1	$f10,-16656(v0)
  4067ac:	46206300 	add.d	$f12,$f12,$f0
  4067b0:	44890000 	mtc1	t1,$f0
  4067b4:	3c030007 	lui	v1,0x7
  4067b8:	44880800 	mtc1	t0,$f1
  4067bc:	3c020046 	lui	v0,0x46
  4067c0:	46206082 	mul.d	$f2,$f12,$f0
  4067c4:	3463ffff 	ori	v1,v1,0xffff
  4067c8:	d4527ab8 	ldc1	$f18,31416(v0)
  4067cc:	3c020047 	lui	v0,0x47
  4067d0:	d44e1a90 	ldc1	$f14,6800(v0)
  4067d4:	44892000 	mtc1	t1,$f4
  4067d8:	462a1080 	add.d	$f2,$f2,$f10
  4067dc:	44882800 	mtc1	t0,$f5
  4067e0:	44071000 	mfc1	a3,$f2
  4067e4:	462a1281 	sub.d	$f10,$f2,$f10
  4067e8:	00e31824 	and	v1,a3,v1
  4067ec:	00031040 	sll	v0,v1,0x1
  4067f0:	00621821 	addu	v1,v1,v0
  4067f4:	3c020046 	lui	v0,0x46
  4067f8:	24427af8 	addiu	v0,v0,31480
  4067fc:	000318c0 	sll	v1,v1,0x3
  406800:	00621821 	addu	v1,v1,v0
  406804:	d4600000 	ldc1	$f0,0(v1)
  406808:	3c020046 	lui	v0,0x46
  40680c:	448b1000 	mtc1	t3,$f2
  406810:	46320000 	add.d	$f0,$f0,$f18
  406814:	d4467af0 	ldc1	$f6,31472(v0)
  406818:	448a1800 	mtc1	t2,$f3
  40681c:	46206302 	mul.d	$f12,$f12,$f0
  406820:	46261181 	sub.d	$f6,$f2,$f6
  406824:	462aa402 	mul.d	$f16,$f20,$f10
  406828:	3c020046 	lui	v0,0x46
  40682c:	46283180 	add.d	$f6,$f6,$f8
  406830:	d4800010 	ldc1	$f0,16(a0)
  406834:	462e6080 	add.d	$f2,$f12,$f14
  406838:	46302401 	sub.d	$f16,$f4,$f16
  40683c:	462e1081 	sub.d	$f2,$f2,$f14
  406840:	d4447ae8 	ldc1	$f4,31464(v0)
  406844:	3c020046 	lui	v0,0x46
  406848:	46341202 	mul.d	$f8,$f2,$f20
  40684c:	46262102 	mul.d	$f4,$f4,$f6
  406850:	d46e0008 	ldc1	$f14,8(v1)
  406854:	46228682 	mul.d	$f26,$f16,$f2
  406858:	d4620010 	ldc1	$f2,16(v1)
  40685c:	462a4202 	mul.d	$f8,$f8,$f10
  406860:	46202100 	add.d	$f4,$f4,$f0
  406864:	d4407ae0 	ldc1	$f0,31456(v0)
  406868:	d48a0018 	ldc1	$f10,24(a0)
  40686c:	462e2700 	add.d	$f28,$f4,$f14
  406870:	46260002 	mul.d	$f0,$f0,$f6
  406874:	46289481 	sub.d	$f18,$f18,$f8
  406878:	46225280 	add.d	$f10,$f10,$f2
  40687c:	3c020047 	lui	v0,0x47
  406880:	462c9482 	mul.d	$f18,$f18,$f12
  406884:	46205280 	add.d	$f10,$f10,$f0
  406888:	d4401a98 	ldc1	$f0,6808(v0)
  40688c:	3c020047 	lui	v0,0x47
  406890:	d44419f0 	ldc1	$f4,6640(v0)
  406894:	46328382 	mul.d	$f14,$f16,$f18
  406898:	f5800000 	sdc1	$f0,0(t4)
  40689c:	3c020047 	lui	v0,0x47
  4068a0:	462ed180 	add.d	$f6,$f26,$f14
  4068a4:	4626d001 	sub.d	$f0,$f26,$f6
  4068a8:	46243102 	mul.d	$f4,$f6,$f4
  4068ac:	4626e200 	add.d	$f8,$f28,$f6
  4068b0:	46207380 	add.d	$f14,$f14,$f0
  4068b4:	d44019f8 	ldc1	$f0,6648(v0)
  4068b8:	3c020047 	lui	v0,0x47
  4068bc:	46263302 	mul.d	$f12,$f6,$f6
  4068c0:	46202100 	add.d	$f4,$f4,$f0
  4068c4:	d4401a10 	ldc1	$f0,6672(v0)
  4068c8:	4628e081 	sub.d	$f2,$f28,$f8
  4068cc:	46262102 	mul.d	$f4,$f4,$f6
  4068d0:	462e5280 	add.d	$f10,$f10,$f14
  4068d4:	46261080 	add.d	$f2,$f2,$f6
  4068d8:	462a1080 	add.d	$f2,$f2,$f10
  4068dc:	46202100 	add.d	$f4,$f4,$f0
  4068e0:	46246302 	mul.d	$f12,$f12,$f4
  4068e4:	462c1080 	add.d	$f2,$f2,$f12
  4068e8:	46224500 	add.d	$f20,$f8,$f2
  4068ec:	46344201 	sub.d	$f8,$f8,$f20
  4068f0:	46224200 	add.d	$f8,$f8,$f2
  4068f4:	f4a80000 	sdc1	$f8,0(a1)
  4068f8:	081018cd 	j	406334 <__ieee754_pow+0x6b0>
  4068fc:	00000000 	nop
  406900:	3c023fe0 	lui	v0,0x3fe0
  406904:	00824025 	or	t0,a0,v0
  406908:	0810183b 	j	4060ec <__ieee754_pow+0x468>
  40690c:	246b0001 	addiu	t3,v1,1
  406910:	d7a00030 	ldc1	$f0,48(sp)
  406914:	4620f087 	neg.d	$f2,$f30
  406918:	081018ec 	j	4063b0 <__ieee754_pow+0x72c>
  40691c:	46201082 	mul.d	$f2,$f2,$f0
  406920:	0c1016e8 	jal	405ba0 <checkint>
  406924:	4620f306 	mov.d	$f12,$f30
  406928:	2403ffff 	li	v1,-1
  40692c:	104300a8 	beq	v0,v1,406bd0 <__ieee754_pow+0xf4c>
  406930:	00000000 	nop
  406934:	44800000 	mtc1	zero,$f0
  406938:	00000000 	nop
  40693c:	44800800 	mtc1	zero,$f1
  406940:	00000000 	nop
  406944:	4620f03c 	c.lt.d	$f30,$f0
  406948:	00000000 	nop
  40694c:	4500feae 	bc1f	406408 <__ieee754_pow+0x784>
  406950:	46200306 	mov.d	$f12,$f0
  406954:	44952000 	mtc1	s5,$f4
  406958:	00000000 	nop
  40695c:	44942800 	mtc1	s4,$f5
  406960:	00000000 	nop
  406964:	4624003c 	c.lt.d	$f0,$f4
  406968:	00000000 	nop
  40696c:	450200ad 	bc1fl	406c24 <__ieee754_pow+0xfa0>
  406970:	3c020047 	lui	v0,0x47
  406974:	3c020046 	lui	v0,0x46
  406978:	d4407ab8 	ldc1	$f0,31416(v0)
  40697c:	46240003 	div.d	$f0,$f0,$f4
  406980:	08101902 	j	406408 <__ieee754_pow+0x784>
  406984:	46200306 	mov.d	$f12,$f0
  406988:	0c1016e8 	jal	405ba0 <checkint>
  40698c:	4620f306 	mov.d	$f12,$f30
  406990:	14400060 	bnez	v0,406b14 <__ieee754_pow+0xe90>
  406994:	00401821 	move	v1,v0
  406998:	3c027fff 	lui	v0,0x7fff
  40699c:	3442ffff 	ori	v0,v0,0xffff
  4069a0:	02421024 	and	v0,s2,v0
  4069a4:	3c037ff0 	lui	v1,0x7ff0
  4069a8:	104300a5 	beq	v0,v1,406c40 <__ieee754_pow+0xfbc>
  4069ac:	3c02fff0 	lui	v0,0xfff0
  4069b0:	1602fea8 	bne	s0,v0,406454 <__ieee754_pow+0x7d0>
  4069b4:	3c020046 	lui	v0,0x46
  4069b8:	1620fea6 	bnez	s1,406454 <__ieee754_pow+0x7d0>
  4069bc:	00000000 	nop
  4069c0:	44800000 	mtc1	zero,$f0
  4069c4:	00000000 	nop
  4069c8:	44800800 	mtc1	zero,$f1
  4069cc:	00000000 	nop
